Archive member included to satisfy reference by file (symbol)

/usr/lib/aarch64-linux-gnu/libc_nonshared.a(pthread_atfork.oS)
                              /tmp/tmp.mK74ILubrR.o (pthread_atfork)

Merging program properties

Removed property 0xc0000000 to merge /usr/lib/gcc/aarch64-linux-gnu/13/crtbeginS.o (0x3) and /lib/aarch64-linux-gnu/crti.o (not found)
Removed property 0xc0000000 to merge /usr/lib/gcc/aarch64-linux-gnu/13/crtbeginS.o (not found) and /usr/lib/gcc/aarch64-linux-gnu/13/crtendS.o (0x3)

As-needed library included to satisfy reference by file (symbol)

libgcc_s.so.1                 /tmp/tmp.ZRiHNRtepR.o (_Unwind_Resume@@GCC_3.0)

Discarded input sections

 .data          0x0000000000000000        0x0 /lib/aarch64-linux-gnu/crti.o
 .bss           0x0000000000000000        0x0 /lib/aarch64-linux-gnu/crti.o
 .note.GNU-stack
                0x0000000000000000        0x0 /lib/aarch64-linux-gnu/crti.o
 .data          0x0000000000000000        0x0 /usr/lib/gcc/aarch64-linux-gnu/13/crtbeginS.o
 .note.GNU-stack
                0x0000000000000000        0x0 /usr/lib/gcc/aarch64-linux-gnu/13/crtbeginS.o
 .note.gnu.property
                0x0000000000000000       0x20 /usr/lib/gcc/aarch64-linux-gnu/13/crtbeginS.o
 .llvmbc        0x0000000000000000      0x968 /tmp/tmp.jxHTwhT1N1.o
 .llvmcmd       0x0000000000000000        0x0 /tmp/tmp.jxHTwhT1N1.o
 .note.GNU-stack
                0x0000000000000000        0x0 /tmp/tmp.jxHTwhT1N1.o
 .llvmbc        0x0000000000000000   0x15165c /tmp/tmp.ZRiHNRtepR.o
 .llvmcmd       0x0000000000000000        0x0 /tmp/tmp.ZRiHNRtepR.o
 .group         0x0000000000000000        0xc /tmp/tmp.ZRiHNRtepR.o
 .note.GNU-stack
                0x0000000000000000        0x0 /tmp/tmp.ZRiHNRtepR.o
 .text          0x0000000000000000        0x0 /tmp/tmp.XLOIlQulI6.o
 .llvmbc        0x0000000000000000      0x8d0 /tmp/tmp.XLOIlQulI6.o
 .llvmcmd       0x0000000000000000        0x0 /tmp/tmp.XLOIlQulI6.o
 .comment       0x0000000000000000       0x35 /tmp/tmp.XLOIlQulI6.o
 .note.GNU-stack
                0x0000000000000000        0x0 /tmp/tmp.XLOIlQulI6.o
 .text          0x0000000000000000        0x0 /tmp/tmp.BmDVNAVrZo.o
 .llvmbc        0x0000000000000000      0x8e8 /tmp/tmp.BmDVNAVrZo.o
 .llvmcmd       0x0000000000000000        0x0 /tmp/tmp.BmDVNAVrZo.o
 .comment       0x0000000000000000       0x35 /tmp/tmp.BmDVNAVrZo.o
 .note.GNU-stack
                0x0000000000000000        0x0 /tmp/tmp.BmDVNAVrZo.o
 .llvmbc        0x0000000000000000   0x1a289c /tmp/tmp.j1zMqkiwIM.o
 .llvmcmd       0x0000000000000000        0x0 /tmp/tmp.j1zMqkiwIM.o
 .group         0x0000000000000000        0xc /tmp/tmp.j1zMqkiwIM.o
 .data.DW.ref.rust_eh_personality
                0x0000000000000000        0x8 /tmp/tmp.j1zMqkiwIM.o
 .note.GNU-stack
                0x0000000000000000        0x0 /tmp/tmp.j1zMqkiwIM.o
 .llvmbc        0x0000000000000000    0x3ce40 /tmp/tmp.1AvJ5bNGPW.o
 .llvmcmd       0x0000000000000000        0x0 /tmp/tmp.1AvJ5bNGPW.o
 .group         0x0000000000000000        0xc /tmp/tmp.1AvJ5bNGPW.o
 .data.DW.ref.rust_eh_personality
                0x0000000000000000        0x8 /tmp/tmp.1AvJ5bNGPW.o
 .note.GNU-stack
                0x0000000000000000        0x0 /tmp/tmp.1AvJ5bNGPW.o
 .text          0x0000000000000000        0x0 /tmp/tmp.iHIDCtMzD0.o
 .llvmbc        0x0000000000000000      0x8cc /tmp/tmp.iHIDCtMzD0.o
 .llvmcmd       0x0000000000000000        0x0 /tmp/tmp.iHIDCtMzD0.o
 .comment       0x0000000000000000       0x35 /tmp/tmp.iHIDCtMzD0.o
 .note.GNU-stack
                0x0000000000000000        0x0 /tmp/tmp.iHIDCtMzD0.o
 .llvmbc        0x0000000000000000    0x134b4 /tmp/tmp.T4JcO1buAE.o
 .llvmcmd       0x0000000000000000        0x0 /tmp/tmp.T4JcO1buAE.o
 .note.GNU-stack
                0x0000000000000000        0x0 /tmp/tmp.T4JcO1buAE.o
 .llvmbc        0x0000000000000000    0x1e180 /tmp/tmp.tnd3D19n8w.o
 .llvmcmd       0x0000000000000000        0x0 /tmp/tmp.tnd3D19n8w.o
 .note.GNU-stack
                0x0000000000000000        0x0 /tmp/tmp.tnd3D19n8w.o
 .text          0x0000000000000000        0x0 /tmp/tmp.QbNYe1FjXW.o
 .llvmbc        0x0000000000000000      0x8d0 /tmp/tmp.QbNYe1FjXW.o
 .llvmcmd       0x0000000000000000        0x0 /tmp/tmp.QbNYe1FjXW.o
 .comment       0x0000000000000000       0x35 /tmp/tmp.QbNYe1FjXW.o
 .note.GNU-stack
                0x0000000000000000        0x0 /tmp/tmp.QbNYe1FjXW.o
 .llvmbc        0x0000000000000000    0xa0b78 /tmp/tmp.qgbdJ0RIaK.o
 .llvmcmd       0x0000000000000000        0x0 /tmp/tmp.qgbdJ0RIaK.o
 .note.GNU-stack
                0x0000000000000000        0x0 /tmp/tmp.qgbdJ0RIaK.o
 .llvmbc        0x0000000000000000    0x29e04 /tmp/tmp.02UVREPIR3.o
 .llvmcmd       0x0000000000000000        0x0 /tmp/tmp.02UVREPIR3.o
 .note.GNU-stack
                0x0000000000000000        0x0 /tmp/tmp.02UVREPIR3.o
 .llvmbc        0x0000000000000000    0xbb7b8 /tmp/tmp.jif7ZMerv3.o
 .llvmcmd       0x0000000000000000        0x0 /tmp/tmp.jif7ZMerv3.o
 .note.GNU-stack
                0x0000000000000000        0x0 /tmp/tmp.jif7ZMerv3.o
 .llvmbc        0x0000000000000000     0x3eac /tmp/tmp.wEo1ns4GKV.o
 .llvmcmd       0x0000000000000000        0x0 /tmp/tmp.wEo1ns4GKV.o
 .note.GNU-stack
                0x0000000000000000        0x0 /tmp/tmp.wEo1ns4GKV.o
 .llvmbc        0x0000000000000000   0x261584 /tmp/tmp.yY4AXHMtRa.o
 .llvmcmd       0x0000000000000000        0x0 /tmp/tmp.yY4AXHMtRa.o
 .group         0x0000000000000000        0xc /tmp/tmp.yY4AXHMtRa.o
 .data.DW.ref.rust_eh_personality
                0x0000000000000000        0x8 /tmp/tmp.yY4AXHMtRa.o
 .note.GNU-stack
                0x0000000000000000        0x0 /tmp/tmp.yY4AXHMtRa.o
 .llvmbc        0x0000000000000000     0x62f8 /tmp/tmp.l76HFRc2z8.o
 .llvmcmd       0x0000000000000000        0x0 /tmp/tmp.l76HFRc2z8.o
 .group         0x0000000000000000        0xc /tmp/tmp.l76HFRc2z8.o
 .data.DW.ref.rust_eh_personality
                0x0000000000000000        0x8 /tmp/tmp.l76HFRc2z8.o
 .note.GNU-stack
                0x0000000000000000        0x0 /tmp/tmp.l76HFRc2z8.o
 .llvmbc        0x0000000000000000    0x8dacc /tmp/tmp.368W3XSNDN.o
 .llvmcmd       0x0000000000000000        0x0 /tmp/tmp.368W3XSNDN.o
 .note.GNU-stack
                0x0000000000000000        0x0 /tmp/tmp.368W3XSNDN.o
 .llvmbc        0x0000000000000000    0x6da54 /tmp/tmp.7cB97wCUxJ.o
 .llvmcmd       0x0000000000000000        0x0 /tmp/tmp.7cB97wCUxJ.o
 .note.GNU-stack
                0x0000000000000000        0x0 /tmp/tmp.7cB97wCUxJ.o
 .llvmbc        0x0000000000000000   0x572714 /tmp/tmp.fly7mVkzgC.o
 .llvmcmd       0x0000000000000000        0x0 /tmp/tmp.fly7mVkzgC.o
 .group         0x0000000000000000        0xc /tmp/tmp.fly7mVkzgC.o
 .data.DW.ref.rust_eh_personality
                0x0000000000000000        0x8 /tmp/tmp.fly7mVkzgC.o
 .note.GNU-stack
                0x0000000000000000        0x0 /tmp/tmp.fly7mVkzgC.o
 .llvmbc        0x0000000000000000    0x191e0 /tmp/tmp.8JBNuUmbgF.o
 .llvmcmd       0x0000000000000000        0x0 /tmp/tmp.8JBNuUmbgF.o
 .group         0x0000000000000000        0xc /tmp/tmp.8JBNuUmbgF.o
 .data.DW.ref.rust_eh_personality
                0x0000000000000000        0x8 /tmp/tmp.8JBNuUmbgF.o
 .note.GNU-stack
                0x0000000000000000        0x0 /tmp/tmp.8JBNuUmbgF.o
 .text          0x0000000000000000        0x0 /tmp/tmp.cWmliQENNM.o
 .llvmbc        0x0000000000000000      0x8ec /tmp/tmp.cWmliQENNM.o
 .llvmcmd       0x0000000000000000        0x0 /tmp/tmp.cWmliQENNM.o
 .comment       0x0000000000000000       0x35 /tmp/tmp.cWmliQENNM.o
 .note.GNU-stack
                0x0000000000000000        0x0 /tmp/tmp.cWmliQENNM.o
 .text          0x0000000000000000        0x0 /tmp/tmp.I1hY5EymVo.o
 .llvmbc        0x0000000000000000      0x8cc /tmp/tmp.I1hY5EymVo.o
 .llvmcmd       0x0000000000000000        0x0 /tmp/tmp.I1hY5EymVo.o
 .comment       0x0000000000000000       0x35 /tmp/tmp.I1hY5EymVo.o
 .note.GNU-stack
                0x0000000000000000        0x0 /tmp/tmp.I1hY5EymVo.o
 .llvmbc        0x0000000000000000    0x56cdc /tmp/tmp.DWP6luA7mj.o
 .llvmcmd       0x0000000000000000        0x0 /tmp/tmp.DWP6luA7mj.o
 .group         0x0000000000000000        0xc /tmp/tmp.DWP6luA7mj.o
 .data.DW.ref.rust_eh_personality
                0x0000000000000000        0x8 /tmp/tmp.DWP6luA7mj.o
 .note.GNU-stack
                0x0000000000000000        0x0 /tmp/tmp.DWP6luA7mj.o
 .llvmbc        0x0000000000000000   0x2d598c /tmp/tmp.kEP4qVmKgW.o
 .llvmcmd       0x0000000000000000        0x0 /tmp/tmp.kEP4qVmKgW.o
 .group         0x0000000000000000        0xc /tmp/tmp.kEP4qVmKgW.o
 .data.DW.ref.rust_eh_personality
                0x0000000000000000        0x8 /tmp/tmp.kEP4qVmKgW.o
 .note.GNU-stack
                0x0000000000000000        0x0 /tmp/tmp.kEP4qVmKgW.o
 .llvmbc        0x0000000000000000    0x8f6e0 /tmp/tmp.3xIdfUSbiF.o
 .llvmcmd       0x0000000000000000        0x0 /tmp/tmp.3xIdfUSbiF.o
 .note.GNU-stack
                0x0000000000000000        0x0 /tmp/tmp.3xIdfUSbiF.o
 .llvmbc        0x0000000000000000    0x597ec /tmp/tmp.ydWpPdcAJ4.o
 .llvmcmd       0x0000000000000000        0x0 /tmp/tmp.ydWpPdcAJ4.o
 .group         0x0000000000000000        0xc /tmp/tmp.ydWpPdcAJ4.o
 .data.DW.ref.rust_eh_personality
                0x0000000000000000        0x8 /tmp/tmp.ydWpPdcAJ4.o
 .note.GNU-stack
                0x0000000000000000        0x0 /tmp/tmp.ydWpPdcAJ4.o
 .llvmbc        0x0000000000000000   0x248df8 /tmp/tmp.hE4DplIHT5.o
 .llvmcmd       0x0000000000000000        0x0 /tmp/tmp.hE4DplIHT5.o
 .group         0x0000000000000000        0xc /tmp/tmp.hE4DplIHT5.o
 .data.DW.ref.rust_eh_personality
                0x0000000000000000        0x8 /tmp/tmp.hE4DplIHT5.o
 .note.GNU-stack
                0x0000000000000000        0x0 /tmp/tmp.hE4DplIHT5.o
 .llvmbc        0x0000000000000000     0x51c0 /tmp/tmp.bRvc12isai.o
 .llvmcmd       0x0000000000000000        0x0 /tmp/tmp.bRvc12isai.o
 .note.GNU-stack
                0x0000000000000000        0x0 /tmp/tmp.bRvc12isai.o
 .llvmbc        0x0000000000000000    0x14630 /tmp/tmp.pLiPOMntxt.o
 .llvmcmd       0x0000000000000000        0x0 /tmp/tmp.pLiPOMntxt.o
 .group         0x0000000000000000        0xc /tmp/tmp.pLiPOMntxt.o
 .data.DW.ref.rust_eh_personality
                0x0000000000000000        0x8 /tmp/tmp.pLiPOMntxt.o
 .note.GNU-stack
                0x0000000000000000        0x0 /tmp/tmp.pLiPOMntxt.o
 .text          0x0000000000000000        0x0 /tmp/tmp.JmIJEwawQy.o
 .llvmbc        0x0000000000000000      0x96c /tmp/tmp.JmIJEwawQy.o
 .llvmcmd       0x0000000000000000        0x0 /tmp/tmp.JmIJEwawQy.o
 .comment       0x0000000000000000       0x35 /tmp/tmp.JmIJEwawQy.o
 .note.GNU-stack
                0x0000000000000000        0x0 /tmp/tmp.JmIJEwawQy.o
 .llvmbc        0x0000000000000000    0x49394 /tmp/tmp.HDPuaqhhZu.o
 .llvmcmd       0x0000000000000000        0x0 /tmp/tmp.HDPuaqhhZu.o
 .note.GNU-stack
                0x0000000000000000        0x0 /tmp/tmp.HDPuaqhhZu.o
 .text          0x0000000000000000        0x0 /tmp/tmp.LlEReZ0Za2.o
 .llvmbc        0x0000000000000000      0x8dc /tmp/tmp.LlEReZ0Za2.o
 .llvmcmd       0x0000000000000000        0x0 /tmp/tmp.LlEReZ0Za2.o
 .comment       0x0000000000000000       0x35 /tmp/tmp.LlEReZ0Za2.o
 .note.GNU-stack
                0x0000000000000000        0x0 /tmp/tmp.LlEReZ0Za2.o
 .llvmbc        0x0000000000000000    0x826cc /tmp/tmp.jmwwJDUOZj.o
 .llvmcmd       0x0000000000000000        0x0 /tmp/tmp.jmwwJDUOZj.o
 .note.GNU-stack
                0x0000000000000000        0x0 /tmp/tmp.jmwwJDUOZj.o
 .llvmbc        0x0000000000000000    0x360b0 /tmp/tmp.ORH0yeivYX.o
 .llvmcmd       0x0000000000000000        0x0 /tmp/tmp.ORH0yeivYX.o
 .note.GNU-stack
                0x0000000000000000        0x0 /tmp/tmp.ORH0yeivYX.o
 .text          0x0000000000000000        0x0 /tmp/tmp.W5jPSL7q1h.o
 .llvmbc        0x0000000000000000      0x8dc /tmp/tmp.W5jPSL7q1h.o
 .llvmcmd       0x0000000000000000        0x0 /tmp/tmp.W5jPSL7q1h.o
 .comment       0x0000000000000000       0x35 /tmp/tmp.W5jPSL7q1h.o
 .note.GNU-stack
                0x0000000000000000        0x0 /tmp/tmp.W5jPSL7q1h.o
 .llvmbc        0x0000000000000000     0xf3a4 /tmp/tmp.18nOMT9MRe.o
 .llvmcmd       0x0000000000000000        0x0 /tmp/tmp.18nOMT9MRe.o
 .note.GNU-stack
                0x0000000000000000        0x0 /tmp/tmp.18nOMT9MRe.o
 .llvmbc        0x0000000000000000     0x7708 /tmp/tmp.cDPw3yBmbF.o
 .llvmcmd       0x0000000000000000        0x0 /tmp/tmp.cDPw3yBmbF.o
 .note.GNU-stack
                0x0000000000000000        0x0 /tmp/tmp.cDPw3yBmbF.o
 .llvmbc        0x0000000000000000    0x1bbe0 /tmp/tmp.ROpYMn2IxR.o
 .llvmcmd       0x0000000000000000        0x0 /tmp/tmp.ROpYMn2IxR.o
 .note.GNU-stack
                0x0000000000000000        0x0 /tmp/tmp.ROpYMn2IxR.o
 .llvmbc        0x0000000000000000    0x5baa4 /tmp/tmp.mK74ILubrR.o
 .llvmcmd       0x0000000000000000        0x0 /tmp/tmp.mK74ILubrR.o
 .group         0x0000000000000000        0xc /tmp/tmp.mK74ILubrR.o
 .data.DW.ref.rust_eh_personality
                0x0000000000000000        0x8 /tmp/tmp.mK74ILubrR.o
 .note.GNU-stack
                0x0000000000000000        0x0 /tmp/tmp.mK74ILubrR.o
 .llvmbc        0x0000000000000000     0x1c2c /tmp/tmp.YRYzENnSY1.o
 .llvmcmd       0x0000000000000000        0x0 /tmp/tmp.YRYzENnSY1.o
 .note.GNU-stack
                0x0000000000000000        0x0 /tmp/tmp.YRYzENnSY1.o
 .text          0x0000000000000000        0x0 /tmp/tmp.T7CzPgFdQq.o
 .llvmbc        0x0000000000000000      0x8c8 /tmp/tmp.T7CzPgFdQq.o
 .llvmcmd       0x0000000000000000        0x0 /tmp/tmp.T7CzPgFdQq.o
 .comment       0x0000000000000000       0x35 /tmp/tmp.T7CzPgFdQq.o
 .note.GNU-stack
                0x0000000000000000        0x0 /tmp/tmp.T7CzPgFdQq.o
 .llvmbc        0x0000000000000000     0xe874 /tmp/tmp.11GKO8fURX.o
 .llvmcmd       0x0000000000000000        0x0 /tmp/tmp.11GKO8fURX.o
 .group         0x0000000000000000        0xc /tmp/tmp.11GKO8fURX.o
 .data.DW.ref.rust_eh_personality
                0x0000000000000000        0x8 /tmp/tmp.11GKO8fURX.o
 .note.GNU-stack
                0x0000000000000000        0x0 /tmp/tmp.11GKO8fURX.o
 .llvmbc        0x0000000000000000    0x125e8 /tmp/tmp.S8xLcpI71A.o
 .llvmcmd       0x0000000000000000        0x0 /tmp/tmp.S8xLcpI71A.o
 .note.GNU-stack
                0x0000000000000000        0x0 /tmp/tmp.S8xLcpI71A.o
 .llvmbc        0x0000000000000000    0x58a74 /tmp/tmp.XCromRbr5b.o
 .llvmcmd       0x0000000000000000        0x0 /tmp/tmp.XCromRbr5b.o
 .note.GNU-stack
                0x0000000000000000        0x0 /tmp/tmp.XCromRbr5b.o
 .text          0x0000000000000000        0x0 /tmp/tmp.hEmJwKoWwh.o
 .llvmbc        0x0000000000000000      0x8dc /tmp/tmp.hEmJwKoWwh.o
 .llvmcmd       0x0000000000000000        0x0 /tmp/tmp.hEmJwKoWwh.o
 .comment       0x0000000000000000       0x35 /tmp/tmp.hEmJwKoWwh.o
 .note.GNU-stack
                0x0000000000000000        0x0 /tmp/tmp.hEmJwKoWwh.o
 .llvmbc        0x0000000000000000    0x97654 /tmp/tmp.xPd6T95Idf.o
 .llvmcmd       0x0000000000000000        0x0 /tmp/tmp.xPd6T95Idf.o
 .group         0x0000000000000000        0xc /tmp/tmp.xPd6T95Idf.o
 .data.DW.ref.rust_eh_personality
                0x0000000000000000        0x8 /tmp/tmp.xPd6T95Idf.o
 .note.GNU-stack
                0x0000000000000000        0x0 /tmp/tmp.xPd6T95Idf.o
 .text          0x0000000000000000        0x0 /tmp/tmp.dsTP65KCKy.o
 .llvmbc        0x0000000000000000      0x8d0 /tmp/tmp.dsTP65KCKy.o
 .llvmcmd       0x0000000000000000        0x0 /tmp/tmp.dsTP65KCKy.o
 .comment       0x0000000000000000       0x35 /tmp/tmp.dsTP65KCKy.o
 .note.GNU-stack
                0x0000000000000000        0x0 /tmp/tmp.dsTP65KCKy.o
 .text          0x0000000000000000        0x0 /tmp/tmp.olhGuzdtoQ.o
 .llvmbc        0x0000000000000000      0x914 /tmp/tmp.olhGuzdtoQ.o
 .llvmcmd       0x0000000000000000        0x0 /tmp/tmp.olhGuzdtoQ.o
 .comment       0x0000000000000000       0x35 /tmp/tmp.olhGuzdtoQ.o
 .note.GNU-stack
                0x0000000000000000        0x0 /tmp/tmp.olhGuzdtoQ.o
 .data          0x0000000000000000        0x0 /usr/lib/aarch64-linux-gnu/libc_nonshared.a(pthread_atfork.oS)
 .bss           0x0000000000000000        0x0 /usr/lib/aarch64-linux-gnu/libc_nonshared.a(pthread_atfork.oS)
 .note.GNU-stack
                0x0000000000000000        0x0 /usr/lib/aarch64-linux-gnu/libc_nonshared.a(pthread_atfork.oS)
 .text          0x0000000000000000        0x0 /usr/lib/gcc/aarch64-linux-gnu/13/crtendS.o
 .data          0x0000000000000000        0x0 /usr/lib/gcc/aarch64-linux-gnu/13/crtendS.o
 .bss           0x0000000000000000        0x0 /usr/lib/gcc/aarch64-linux-gnu/13/crtendS.o
 .note.GNU-stack
                0x0000000000000000        0x0 /usr/lib/gcc/aarch64-linux-gnu/13/crtendS.o
 .note.gnu.property
                0x0000000000000000       0x20 /usr/lib/gcc/aarch64-linux-gnu/13/crtendS.o
 .text          0x0000000000000000        0x0 /lib/aarch64-linux-gnu/crtn.o
 .data          0x0000000000000000        0x0 /lib/aarch64-linux-gnu/crtn.o
 .bss           0x0000000000000000        0x0 /lib/aarch64-linux-gnu/crtn.o
 .note.GNU-stack
                0x0000000000000000        0x0 /lib/aarch64-linux-gnu/crtn.o

Memory Configuration

Name             Origin             Length             Attributes
*default*        0x0000000000000000 0xffffffffffffffff

Linker script and memory map

LOAD /lib/aarch64-linux-gnu/crti.o
LOAD /usr/lib/gcc/aarch64-linux-gnu/13/crtbeginS.o
LOAD /tmp/tmp.jxHTwhT1N1.o
LOAD /tmp/tmp.ZRiHNRtepR.o
LOAD /tmp/tmp.XLOIlQulI6.o
LOAD /tmp/tmp.BmDVNAVrZo.o
LOAD /tmp/tmp.j1zMqkiwIM.o
LOAD /tmp/tmp.1AvJ5bNGPW.o
LOAD /tmp/tmp.iHIDCtMzD0.o
LOAD /tmp/tmp.T4JcO1buAE.o
LOAD /tmp/tmp.tnd3D19n8w.o
LOAD /tmp/tmp.QbNYe1FjXW.o
LOAD /tmp/tmp.qgbdJ0RIaK.o
LOAD /tmp/tmp.02UVREPIR3.o
LOAD /tmp/tmp.jif7ZMerv3.o
LOAD /tmp/tmp.wEo1ns4GKV.o
LOAD /tmp/tmp.yY4AXHMtRa.o
LOAD /tmp/tmp.l76HFRc2z8.o
LOAD /tmp/tmp.368W3XSNDN.o
LOAD /tmp/tmp.7cB97wCUxJ.o
LOAD /tmp/tmp.fly7mVkzgC.o
LOAD /tmp/tmp.8JBNuUmbgF.o
LOAD /tmp/tmp.cWmliQENNM.o
LOAD /tmp/tmp.I1hY5EymVo.o
LOAD /tmp/tmp.DWP6luA7mj.o
LOAD /tmp/tmp.kEP4qVmKgW.o
LOAD /tmp/tmp.3xIdfUSbiF.o
LOAD /tmp/tmp.ydWpPdcAJ4.o
LOAD /tmp/tmp.hE4DplIHT5.o
LOAD /tmp/tmp.bRvc12isai.o
LOAD /tmp/tmp.pLiPOMntxt.o
LOAD /tmp/tmp.JmIJEwawQy.o
LOAD /tmp/tmp.HDPuaqhhZu.o
LOAD /tmp/tmp.LlEReZ0Za2.o
LOAD /tmp/tmp.jmwwJDUOZj.o
LOAD /tmp/tmp.ORH0yeivYX.o
LOAD /tmp/tmp.W5jPSL7q1h.o
LOAD /tmp/tmp.18nOMT9MRe.o
LOAD /tmp/tmp.cDPw3yBmbF.o
LOAD /tmp/tmp.ROpYMn2IxR.o
LOAD /tmp/tmp.mK74ILubrR.o
LOAD /tmp/tmp.YRYzENnSY1.o
LOAD /tmp/tmp.T7CzPgFdQq.o
LOAD /tmp/tmp.11GKO8fURX.o
LOAD /tmp/tmp.S8xLcpI71A.o
LOAD /tmp/tmp.XCromRbr5b.o
LOAD /tmp/tmp.hEmJwKoWwh.o
LOAD /tmp/tmp.xPd6T95Idf.o
LOAD /tmp/tmp.dsTP65KCKy.o
LOAD /tmp/tmp.olhGuzdtoQ.o
LOAD /root/.rustup/toolchains/nightly-2025-01-16-aarch64-unknown-linux-gnu/lib/rustlib/aarch64-unknown-linux-gnu/lib/libstd.so
LOAD /usr/lib/gcc/aarch64-linux-gnu/13/libgcc.a
LOAD /usr/lib/gcc/aarch64-linux-gnu/13/libgcc_s.so
START GROUP
LOAD /lib/aarch64-linux-gnu/libgcc_s.so.1
LOAD /usr/lib/gcc/aarch64-linux-gnu/13/libgcc.a
END GROUP
LOAD /lib/aarch64-linux-gnu/libc.so
START GROUP
LOAD /lib/aarch64-linux-gnu/libc.so.6
LOAD /usr/lib/aarch64-linux-gnu/libc_nonshared.a
LOAD /lib/ld-linux-aarch64.so.1
END GROUP
LOAD /usr/lib/gcc/aarch64-linux-gnu/13/libgcc.a
LOAD /usr/lib/gcc/aarch64-linux-gnu/13/libgcc_s.so
START GROUP
LOAD /lib/aarch64-linux-gnu/libgcc_s.so.1
LOAD /usr/lib/gcc/aarch64-linux-gnu/13/libgcc.a
END GROUP
LOAD /usr/lib/gcc/aarch64-linux-gnu/13/crtendS.o
LOAD /lib/aarch64-linux-gnu/crtn.o
                0x00000000000001c8                . = (SEGMENT_START ("text-segment", 0x0) + SIZEOF_HEADERS)

.note.gnu.build-id
 *(.note.gnu.build-id)

.hash
 *(.hash)

.gnu.hash       0x00000000000001c8     0x57a4
 *(.gnu.hash)
 .gnu.hash      0x00000000000001c8     0x57a4 /lib/aarch64-linux-gnu/crti.o

.dynsym         0x0000000000005970    0x12f90
 *(.dynsym)
 .dynsym        0x0000000000005970    0x12f90 /lib/aarch64-linux-gnu/crti.o

.dynstr         0x0000000000018900    0x48803
 *(.dynstr)
 .dynstr        0x0000000000018900    0x48803 /lib/aarch64-linux-gnu/crti.o

.gnu.version    0x0000000000061104     0x194c
 *(.gnu.version)
 .gnu.version   0x0000000000061104     0x194c /lib/aarch64-linux-gnu/crti.o

.gnu.version_d  0x0000000000062a50        0x0
 *(.gnu.version_d)
 .gnu.version_d
                0x0000000000062a50        0x0 /lib/aarch64-linux-gnu/crti.o

.gnu.version_r  0x0000000000062a50       0xf0
 *(.gnu.version_r)
 .gnu.version_r
                0x0000000000062a50       0xf0 /lib/aarch64-linux-gnu/crti.o

.rela.dyn       0x0000000000062b40     0xc588
 *(.rela.init)
 *(.rela.text .rela.text.* .rela.gnu.linkonce.t.*)
 *(.rela.fini)
 *(.rela.rodata .rela.rodata.* .rela.gnu.linkonce.r.*)
 *(.rela.data .rela.data.* .rela.gnu.linkonce.d.*)
 .rela.data.rel.local
                0x0000000000062b40       0x18 /lib/aarch64-linux-gnu/crti.o
 .rela.data.rel.ro
                0x0000000000062b58     0xbca0 /lib/aarch64-linux-gnu/crti.o
 .rela.data.DW.ref.rust_eh_personality
                0x000000000006e7f8       0x18 /lib/aarch64-linux-gnu/crti.o
 .rela.data     0x000000000006e810       0x30 /lib/aarch64-linux-gnu/crti.o
 *(.rela.tdata .rela.tdata.* .rela.gnu.linkonce.td.*)
 *(.rela.tbss .rela.tbss.* .rela.gnu.linkonce.tb.*)
 *(.rela.ctors)
 *(.rela.dtors)
 *(.rela.got)
 .rela.got      0x000000000006e840      0x840 /lib/aarch64-linux-gnu/crti.o
 *(.rela.bss .rela.bss.* .rela.gnu.linkonce.b.*)
 *(.rela.ifunc)
 .rela.ifunc    0x000000000006f080        0x0 /lib/aarch64-linux-gnu/crti.o
 .rela.fini_array
                0x000000000006f080       0x18 /lib/aarch64-linux-gnu/crti.o
 .rela.init_array
                0x000000000006f098       0x18 /lib/aarch64-linux-gnu/crti.o
 .rela.init_array.00099
                0x000000000006f0b0       0x18 /lib/aarch64-linux-gnu/crti.o

.rela.plt       0x000000000006f0c8     0x4560
 *(.rela.plt)
 .rela.plt      0x000000000006f0c8     0x4560 /lib/aarch64-linux-gnu/crti.o
 *(.rela.iplt)

.init           0x0000000000073628       0x18
 *(SORT_NONE(.init))
 .init          0x0000000000073628       0x10 /lib/aarch64-linux-gnu/crti.o
                0x0000000000073628                _init
 .init          0x0000000000073638        0x8 /lib/aarch64-linux-gnu/crtn.o

.plt            0x0000000000073640     0x2d80
 *(.plt)
 .plt           0x0000000000073640     0x2d80 /lib/aarch64-linux-gnu/crti.o
 *(.iplt)

.text           0x00000000000763c0   0x22d0a8
 *(.text.unlikely .text.*_unlikely .text.unlikely.*)
 .text.unlikely.
                0x00000000000763c0     0x22e0 /tmp/tmp.ZRiHNRtepR.o
                0x00000000000769ac                serde_json::de::Deserializer<R>::parse_long_integer
                0x0000000000076da0                serde_json::de::Deserializer<R>::parse_decimal_overflow
                0x000000000007712c                serde_json::de::Deserializer<R>::parse_exponent_overflow
                0x00000000000772c0                serde_json::error::Error::syntax
                0x00000000000773d4                serde_json::error::Error::io
                0x000000000007782c                <serde_json::error::Error as serde::de::Error>::invalid_type
                0x00000000000778c8                <serde_json::error::Error as serde::de::Error>::invalid_value
                0x00000000000779c4                serde_json::value::de::<impl serde_json::value::Value>::unexpected
 .text.unlikely.
                0x00000000000786a0      0x464 /tmp/tmp.j1zMqkiwIM.o
 .text.unlikely.
                0x0000000000078b04      0x688 /tmp/tmp.1AvJ5bNGPW.o
                0x0000000000078f58                ndarray::arraytraits::array_out_of_bounds
                0x0000000000078f90                ndarray::linalg::impl_linalg::dot_shape_error
                0x00000000000790cc                ndarray::linalg::impl_linalg::general_dot_shape_error
 .text.unlikely.
                0x000000000007918c     0x181c /tmp/tmp.yY4AXHMtRa.o
                0x0000000000079818                hashbrown::raw::RawTable<T,A>::reserve_rehash
 .text.unlikely.
                0x000000000007a9a8     0x3f3c /tmp/tmp.fly7mVkzgC.o
                0x000000000007a9e8                core::panicking::assert_failed
                0x000000000007aa44                core::panicking::assert_failed
                0x000000000007aa9c                core::panicking::assert_failed
                0x000000000007b320                std::io::buffered::bufwriter::BufWriter<W>::write_cold
                0x000000000007b518                std::io::buffered::bufwriter::BufWriter<W>::write_all_cold
                0x000000000007b820                std::process::abort
                0x000000000007b844                std::sync::mpmc::context::Context::new
                0x000000000007bbd4                std::sync::lazy_lock::panic_poisoned
                0x000000000007cee0                std::panicking::panic_count::is_zero_slow_path
                0x000000000007cf30                std::panicking::try::cleanup
                0x000000000007cfcc                std::panicking::begin_panic
                0x000000000007d0b0                std::sys::sync::mutex::futex::Mutex::lock_contended
                0x000000000007d398                std::sys::sync::mutex::futex::Mutex::wake
                0x000000000007d7f4                std::sys::sync::once::futex::Once::call
                0x000000000007ddb8                std::sys::sync::rwlock::futex::RwLock::read_contended
                0x000000000007e188                std::sys::sync::rwlock::futex::RwLock::write_contended
                0x000000000007e4d0                std::sys::sync::rwlock::futex::RwLock::wake_writer_or_readers
 .text.unlikely.
                0x000000000007e8e4      0x428 /tmp/tmp.8JBNuUmbgF.o
 .text.unlikely.
                0x000000000007ed0c      0x488 /tmp/tmp.DWP6luA7mj.o
 .text.unlikely.
                0x000000000007f194     0x2404 /tmp/tmp.kEP4qVmKgW.o
                0x00000000000800e0                hashbrown::raw::RawTable<T,A>::reserve_rehash
                0x00000000000807c8                hashbrown::raw::RawTable<T,A>::reserve_rehash
                0x0000000000080eb0                hashbrown::raw::RawTable<T,A>::reserve_rehash
 .text.unlikely.
                0x0000000000081598      0xb04 /tmp/tmp.ydWpPdcAJ4.o
                0x0000000000081ea4                anyhow::error::<impl anyhow::Error>::chain
                0x0000000000081ef4                anyhow::error::<impl core::convert::From<anyhow::Error> for alloc::boxed::Box<dyn core::error::Error>>::from
                0x0000000000081ef4                anyhow::error::<impl core::convert::From<anyhow::Error> for alloc::boxed::Box<dyn core::error::Error+core::marker::Send>>::from
                0x0000000000081ef4                anyhow::error::<impl core::convert::From<anyhow::Error> for alloc::boxed::Box<dyn core::error::Error+core::marker::Sync+core::marker::Send>>::from
                0x0000000000081f2c                anyhow::error::<impl anyhow::Error>::from_boxed
                0x0000000000081f2c                anyhow::kind::Boxed::new
 .text.unlikely.
                0x000000000008209c     0x1408 /tmp/tmp.hE4DplIHT5.o
                0x000000000008209c                core::num::int_log10::panic_for_nonpositive_argument
                0x00000000000820ec                core::num::int_sqrt::panic_for_negative_argument
                0x000000000008213c                core::num::overflow_panic::add
                0x000000000008218c                core::num::overflow_panic::sub
                0x00000000000821dc                core::num::overflow_panic::mul
                0x000000000008222c                core::num::overflow_panic::div
                0x000000000008227c                core::num::overflow_panic::rem
                0x00000000000822cc                core::num::overflow_panic::neg
                0x000000000008231c                core::num::overflow_panic::shr
                0x000000000008236c                core::num::overflow_panic::shl
                0x00000000000823bc                core::num::from_str_radix_panic
                0x00000000000823f4                core::cell::lazy::panic_poisoned
                0x0000000000082444                core::cell::panic_already_borrowed
                0x00000000000824a4                core::cell::panic_already_mutably_borrowed
                0x0000000000082504                core::option::unwrap_failed
                0x000000000008253c                core::option::expect_failed
                0x00000000000825ac                core::panicking::panic_fmt
                0x00000000000825f0                core::panicking::panic_nounwind_fmt
                0x000000000008266c                core::panicking::panic
                0x00000000000826c8                core::panicking::panic_nounwind
                0x0000000000082728                core::panicking::panic_nounwind_nobacktrace
                0x0000000000082788                core::panicking::panic_explicit
                0x00000000000827ec                core::panicking::panic_bounds_check
                0x0000000000082864                core::panicking::panic_misaligned_pointer_dereference
                0x000000000008291c                core::panicking::panic_cannot_unwind
                0x000000000008294c                core::panicking::panic_in_cleanup
                0x000000000008297c                core::panicking::assert_failed
                0x00000000000829c8                core::panicking::assert_failed
                0x0000000000082a14                core::panicking::assert_failed_inner
                0x0000000000082bb4                core::result::unwrap_failed
                0x0000000000082c44                core::slice::sort::shared::smallsort::panic_on_ord_violation
                0x0000000000082c94                core::slice::index::slice_start_index_len_fail
                0x0000000000082cd4                core::slice::index::slice_end_index_len_fail
                0x0000000000082d14                core::slice::index::slice_index_order_fail
                0x0000000000082d54                core::slice::index::slice_start_index_overflow_fail
                0x0000000000082da4                core::slice::index::slice_end_index_overflow_fail
                0x0000000000082df4                core::slice::<impl [T]>::copy_from_slice::len_mismatch_fail
                0x0000000000082e34                core::str::traits::str_index_overflow_fail
                0x0000000000082e84                core::str::slice_error_fail
                0x0000000000082ed8                core::intrinsics::mir::Retag::panic_cold_explicit
                0x0000000000082ed8                core::intrinsics::mir::CopyForDeref::panic_cold_explicit
                0x0000000000082ed8                core::intrinsics::mir::CastTransmute::panic_cold_explicit
                0x0000000000082ed8                core::intrinsics::mir::Field::panic_cold_explicit
                0x0000000000082ed8                core::intrinsics::mir::Return::panic_cold_explicit
                0x0000000000082ed8                core::intrinsics::mir::Goto::panic_cold_explicit
                0x0000000000082ed8                core::intrinsics::mir::UnwindUnreachable::panic_cold_explicit
                0x0000000000082ed8                core::intrinsics::mir::Static::panic_cold_explicit
                0x0000000000082ed8                core::intrinsics::mir::Offset::panic_cold_explicit
                0x0000000000082ed8                core::intrinsics::mir::PtrMetadata::panic_cold_explicit
                0x0000000000082ed8                core::intrinsics::mir::Call::panic_cold_explicit
                0x0000000000082ed8                core::intrinsics::mir::Checked::panic_cold_explicit
                0x0000000000082ed8                core::intrinsics::mir::Unreachable::panic_cold_explicit
                0x0000000000082ed8                core::intrinsics::mir::Discriminant::panic_cold_explicit
                0x0000000000082ed8                core::intrinsics::mir::UnwindCleanup::panic_cold_explicit
                0x0000000000082ed8                core::intrinsics::mir::Move::panic_cold_explicit
                0x0000000000082ed8                core::intrinsics::mir::SetDiscriminant::panic_cold_explicit
                0x0000000000082ed8                core::intrinsics::mir::UnwindTerminate::panic_cold_explicit
                0x0000000000082ed8                core::intrinsics::mir::Drop::panic_cold_explicit
                0x0000000000082ed8                core::intrinsics::mir::StaticMut::panic_cold_explicit
                0x0000000000082ed8                core::intrinsics::mir::Deinit::panic_cold_explicit
                0x0000000000082ed8                core::intrinsics::mir::StorageLive::panic_cold_explicit
                0x0000000000082ed8                core::intrinsics::mir::Assume::panic_cold_explicit
                0x0000000000082ed8                core::intrinsics::mir::__debuginfo::panic_cold_explicit
                0x0000000000082ed8                core::intrinsics::mir::ReturnTo::panic_cold_explicit
                0x0000000000082ed8                core::intrinsics::mir::TailCall::panic_cold_explicit
                0x0000000000082ed8                core::intrinsics::mir::StorageDead::panic_cold_explicit
                0x0000000000082ed8                core::intrinsics::mir::Variant::panic_cold_explicit
                0x0000000000082ed8                core::intrinsics::mir::__internal_make_place::panic_cold_explicit
                0x0000000000082ed8                core::intrinsics::mir::UnwindContinue::panic_cold_explicit
                0x0000000000082ed8                core::intrinsics::mir::UnwindResume::panic_cold_explicit
                0x0000000000082ed8                core::intrinsics::mir::CastPtrToPtr::panic_cold_explicit
                0x0000000000082f04                core::panicking::panic_const::panic_const_add_overflow
                0x0000000000082f54                core::panicking::panic_const::panic_const_sub_overflow
                0x0000000000082fa4                core::panicking::panic_const::panic_const_mul_overflow
                0x0000000000082ff4                core::panicking::panic_const::panic_const_div_overflow
                0x0000000000083044                core::panicking::panic_const::panic_const_rem_overflow
                0x0000000000083094                core::panicking::panic_const::panic_const_neg_overflow
                0x00000000000830e4                core::panicking::panic_const::panic_const_shr_overflow
                0x0000000000083134                core::panicking::panic_const::panic_const_shl_overflow
                0x0000000000083184                core::panicking::panic_const::panic_const_div_by_zero
                0x00000000000831d4                core::panicking::panic_const::panic_const_rem_by_zero
                0x0000000000083224                core::panicking::panic_const::panic_const_coroutine_resumed
                0x0000000000083274                core::panicking::panic_const::panic_const_async_fn_resumed
                0x00000000000832c4                core::panicking::panic_const::panic_const_async_gen_fn_resumed
                0x0000000000083314                core::panicking::panic_const::panic_const_gen_fn_none
                0x0000000000083364                core::panicking::panic_const::panic_const_coroutine_resumed_panic
                0x00000000000833b4                core::panicking::panic_const::panic_const_async_fn_resumed_panic
                0x0000000000083404                core::panicking::panic_const::panic_const_async_gen_fn_resumed_panic
                0x0000000000083454                core::panicking::panic_const::panic_const_gen_fn_none_panic
 .text.unlikely.
                0x00000000000834a4       0x24 /tmp/tmp.bRvc12isai.o
                0x00000000000834a4                std_detect::detect::cache::detect_and_initialize
 .text.unlikely.
                0x00000000000834c8      0x1cc /tmp/tmp.ORH0yeivYX.o
                0x00000000000834c8                memchr::arch::all::rabinkarp::is_equal_raw
 .text.unlikely.
                0x0000000000083694      0x5cc /tmp/tmp.mK74ILubrR.o
 .text.unlikely.
                0x0000000000083c60       0x68 /tmp/tmp.XCromRbr5b.o
                0x0000000000083c60                core::panicking::assert_failed
 .text.unlikely.
                0x0000000000083cc8      0x678 /tmp/tmp.xPd6T95Idf.o
                0x0000000000083cc8                core::panicking::assert_failed
                0x0000000000084158                alloc::raw_vec::handle_error
                0x00000000000841d8                alloc::alloc::handle_alloc_error
                0x0000000000084210                alloc::vec::Vec<T,A>::swap_remove::assert_failed
                0x000000000008425c                alloc::vec::Vec<T,A>::insert::assert_failed
                0x00000000000842a8                alloc::vec::Vec<T,A>::remove::assert_failed
                0x00000000000842f4                alloc::vec::Vec<T,A>::split_off::assert_failed
 *(.text.exit .text.exit.*)
 *(.text.startup .text.startup.*)
 *(.text.hot .text.hot.*)
 *(SORT_BY_NAME(.text.sorted.*))
 *(.text .stub .text.* .gnu.linkonce.t.*)
 .text          0x0000000000084340       0x14 /lib/aarch64-linux-gnu/crti.o
 *fill*         0x0000000000084354        0xc 1f2003d5
 .text          0x0000000000084360       0xc8 /usr/lib/gcc/aarch64-linux-gnu/13/crtbeginS.o
 .text          0x0000000000084428       0x48 /tmp/tmp.jxHTwhT1N1.o
                0x0000000000084428                __check_fuel
 .text          0x0000000000084470    0x1cde0 /tmp/tmp.ZRiHNRtepR.o
                0x00000000000847ec                std::io::error::Error::new
                0x0000000000089ad8                alloc::raw_vec::RawVec<T,A>::grow_one
                0x000000000008a284                serde_json::de::ParserNumber::invalid_type
                0x000000000008b62c                serde_json::de::<impl core::str::traits::FromStr for serde_json::number::Number>::from_str
                0x000000000008c0bc                serde_json::error::Error::io_error_kind
                0x000000000008c334                serde_json::error::<impl core::convert::From<serde_json::error::Error> for std::io::error::Error>::from
                0x000000000008c404                <serde_json::error::ErrorCode as core::fmt::Display>::fmt
                0x000000000008c89c                <serde_json::error::Error as core::error::Error>::source
                0x000000000008c910                <serde_json::error::Error as core::fmt::Display>::fmt
                0x000000000008ca00                <serde_json::error::ErrorImpl as core::fmt::Display>::fmt
                0x000000000008caec                <serde_json::error::Error as core::fmt::Debug>::fmt
                0x000000000008cda8                <serde_json::error::JsonUnexpected as core::fmt::Display>::fmt
                0x000000000008cf84                serde_json::error::make_error
                0x000000000008e814                <<serde_json::map::Map<alloc::string::String,serde_json::value::Value> as serde::de::Deserialize>::deserialize::Visitor as serde::de::Visitor>::expecting
                0x000000000008e850                serde_json::map::Entry::key
                0x000000000008e8d0                serde_json::map::Entry::or_insert
                0x000000000008efc4                serde_json::ser::key_must_be_a_string
                0x000000000008efc4                serde_json::value::ser::key_must_be_a_string
                0x000000000008f00c                serde_json::ser::float_key_must_be_finite
                0x000000000008f054                <serde_json::value::Value as core::fmt::Debug>::fmt
                0x000000000008f3f0                <serde_json::value::Value as core::fmt::Display>::fmt
                0x000000000008f58c                <<serde_json::value::Value as core::fmt::Display>::fmt::WriterFormatter as std::io::Write>::write
                0x000000000008f620                serde_json::value::Value::pointer
                0x000000000008fdd4                serde_json::value::Value::pointer_mut
                0x0000000000092fc8                <serde_json::value::de::<impl serde::de::Deserialize for serde_json::value::Value>::deserialize::ValueVisitor as serde::de::Visitor>::expecting
                0x0000000000093004                serde_json::value::de::<impl core::str::traits::FromStr for serde_json::value::Value>::from_str
                0x00000000000933c0                <serde_json::value::de::VariantDeserializer as serde::de::VariantAccess>::unit_variant
                0x00000000000934ac                serde_json::value::de::SeqDeserializer::new
                0x0000000000093500                <serde_json::value::de::SeqDeserializer as serde::de::SeqAccess>::size_hint
                0x0000000000093548                serde_json::value::de::MapDeserializer::new
                0x00000000000935b8                <serde_json::value::de::VariantRefDeserializer as serde::de::VariantAccess>::unit_variant
                0x0000000000093678                <serde_json::value::de::SeqRefDeserializer as serde::de::SeqAccess>::size_hint
                0x00000000000936bc                <serde_json::value::de::KeyClassifier as serde::de::Visitor>::expecting
                0x00000000000936f8                serde_json::value::from::<impl core::convert::From<f32> for serde_json::value::Value>::from
                0x00000000000937d8                serde_json::value::from::<impl core::convert::From<f64> for serde_json::value::Value>::from
                0x00000000000938b0                serde_json::value::from::<impl core::convert::From<&str> for serde_json::value::Value>::from
                0x0000000000093a08                serde_json::value::from::<impl core::convert::From<alloc::borrow::Cow<str>> for serde_json::value::Value>::from
                0x0000000000093bb8                <usize as serde_json::value::index::Index>::index_or_insert
                0x0000000000093d38                <str as serde_json::value::index::Index>::index_into
                0x0000000000093f74                <str as serde_json::value::index::Index>::index_into_mut
                0x00000000000941a8                <str as serde_json::value::index::Index>::index_or_insert
                0x0000000000094688                <alloc::string::String as serde_json::value::index::Index>::index_into
                0x00000000000948c4                <alloc::string::String as serde_json::value::index::Index>::index_into_mut
                0x0000000000094af8                <alloc::string::String as serde_json::value::index::Index>::index_or_insert
                0x0000000000094b38                <serde_json::value::index::Type as core::fmt::Display>::fmt
                0x0000000000094c64                serde_json::value::partial_eq::<impl core::cmp::PartialEq<str> for serde_json::value::Value>::eq
                0x0000000000094d00                serde_json::value::partial_eq::<impl core::cmp::PartialEq<&str> for serde_json::value::Value>::eq
                0x0000000000094da0                serde_json::value::partial_eq::<impl core::cmp::PartialEq<serde_json::value::Value> for str>::eq
                0x0000000000094e3c                serde_json::value::partial_eq::<impl core::cmp::PartialEq<serde_json::value::Value> for &str>::eq
                0x0000000000094edc                serde_json::value::partial_eq::<impl core::cmp::PartialEq<alloc::string::String> for serde_json::value::Value>::eq
                0x0000000000094f7c                serde_json::value::partial_eq::<impl core::cmp::PartialEq<serde_json::value::Value> for alloc::string::String>::eq
                0x0000000000096ff8                <serde_json::value::ser::Serializer as serde::ser::Serializer>::serialize_i128
                0x0000000000097124                <serde_json::value::ser::Serializer as serde::ser::Serializer>::serialize_u128
                0x00000000000971d4                <serde_json::value::ser::Serializer as serde::ser::Serializer>::serialize_bytes
                0x00000000000973c8                <serde_json::value::ser::Serializer as serde::ser::Serializer>::serialize_seq
                0x0000000000097530                <serde_json::value::ser::Serializer as serde::ser::Serializer>::serialize_tuple
                0x000000000009768c                <serde_json::value::ser::Serializer as serde::ser::Serializer>::serialize_tuple_struct
                0x00000000000977e8                <serde_json::value::ser::Serializer as serde::ser::Serializer>::serialize_tuple_variant
                0x0000000000097a84                <serde_json::value::ser::Serializer as serde::ser::Serializer>::serialize_struct_variant
                0x0000000000097bd8                <serde_json::value::ser::SerializeTupleVariant as serde::ser::SerializeTupleVariant>::end
                0x0000000000097cfc                <serde_json::value::ser::SerializeMap as serde::ser::SerializeMap>::end
                0x0000000000097dc4                <serde_json::value::ser::MapKeySerializer as serde::ser::Serializer>::serialize_bool
                0x0000000000097edc                <serde_json::value::ser::MapKeySerializer as serde::ser::Serializer>::serialize_i8
                0x0000000000098144                <serde_json::value::ser::MapKeySerializer as serde::ser::Serializer>::serialize_i16
                0x0000000000098470                <serde_json::value::ser::MapKeySerializer as serde::ser::Serializer>::serialize_i32
                0x0000000000098804                <serde_json::value::ser::MapKeySerializer as serde::ser::Serializer>::serialize_i64
                0x0000000000098ba0                <serde_json::value::ser::MapKeySerializer as serde::ser::Serializer>::serialize_i128
                0x0000000000099350                <serde_json::value::ser::MapKeySerializer as serde::ser::Serializer>::serialize_u8
                0x0000000000099578                <serde_json::value::ser::MapKeySerializer as serde::ser::Serializer>::serialize_u16
                0x0000000000099850                <serde_json::value::ser::MapKeySerializer as serde::ser::Serializer>::serialize_u32
                0x0000000000099b94                <serde_json::value::ser::MapKeySerializer as serde::ser::Serializer>::serialize_u64
                0x0000000000099ee0                <serde_json::value::ser::MapKeySerializer as serde::ser::Serializer>::serialize_u128
                0x000000000009a628                <serde_json::value::ser::MapKeySerializer as serde::ser::Serializer>::serialize_f32
                0x000000000009a80c                <serde_json::value::ser::MapKeySerializer as serde::ser::Serializer>::serialize_f64
                0x000000000009a9f0                <serde_json::value::ser::MapKeySerializer as serde::ser::Serializer>::serialize_unit_struct
                0x000000000009a9f0                <serde_json::value::ser::MapKeySerializer as serde::ser::Serializer>::serialize_bytes
                0x000000000009aa44                <serde_json::value::ser::MapKeySerializer as serde::ser::Serializer>::serialize_none
                0x000000000009aa44                <serde_json::value::ser::MapKeySerializer as serde::ser::Serializer>::serialize_unit
                0x000000000009aa98                <serde_json::value::ser::MapKeySerializer as serde::ser::Serializer>::serialize_tuple
                0x000000000009aae0                <serde_json::value::ser::MapKeySerializer as serde::ser::Serializer>::serialize_struct_variant
                0x000000000009aae0                <serde_json::value::ser::MapKeySerializer as serde::ser::Serializer>::serialize_tuple_variant
                0x000000000009ab28                <serde_json::value::ser::MapKeySerializer as serde::ser::Serializer>::serialize_map
                0x000000000009ab28                <serde_json::value::ser::MapKeySerializer as serde::ser::Serializer>::serialize_seq
                0x000000000009ab70                <serde_json::value::ser::MapKeySerializer as serde::ser::Serializer>::serialize_struct
                0x000000000009ab70                <serde_json::value::ser::MapKeySerializer as serde::ser::Serializer>::serialize_tuple_struct
                0x000000000009abb8                <serde_json::value::ser::SerializeMap as serde::ser::SerializeStruct>::end
                0x000000000009ac80                <serde_json::value::ser::SerializeStructVariant as serde::ser::SerializeStructVariant>::end
                0x000000000009ada4                serde_json::number::Number::from_f64
                0x000000000009ae30                <serde_json::number::Number as core::fmt::Display>::fmt
                0x000000000009b3a8                <serde_json::number::Number as core::fmt::Debug>::fmt
                0x000000000009b428                <<serde_json::number::Number as serde::de::Deserialize>::deserialize::NumberVisitor as serde::de::Visitor>::expecting
                0x000000000009ce70                <serde_json::read::SliceRead as serde_json::read::Read>::position
                0x000000000009cea4                <serde_json::read::SliceRead as serde_json::read::Read>::peek_position
                0x000000000009ceec                <serde_json::read::SliceRead as serde_json::read::Read>::parse_str
                0x000000000009d7c8                <serde_json::read::SliceRead as serde_json::read::Read>::parse_str_raw
                0x000000000009dd2c                <serde_json::read::SliceRead as serde_json::read::Read>::ignore_str
                0x000000000009e684                <serde_json::read::StrRead as serde_json::read::Read>::position
                0x000000000009e6b8                <serde_json::read::StrRead as serde_json::read::Read>::peek_position
                0x000000000009e700                <serde_json::read::StrRead as serde_json::read::Read>::parse_str
                0x000000000009ee70                <serde_json::read::StrRead as serde_json::read::Read>::parse_str_raw
                0x000000000009eeb8                <serde_json::read::StrRead as serde_json::read::Read>::ignore_str
                0x000000000009eee8                <serde_json::read::StrRead as serde_json::read::Read>::decode_hex_escape
                0x000000000009f99c                serde_json::read::decode_four_hex_digits
                0x000000000009fa34                serde_json::value::partial_eq::<impl core::cmp::PartialEq<i8> for serde_json::value::Value>::eq
                0x000000000009fb1c                serde_json::value::partial_eq::<impl core::cmp::PartialEq<serde_json::value::Value> for i8>::eq
                0x000000000009fc04                serde_json::value::partial_eq::<impl core::cmp::PartialEq<i8> for &mut serde_json::value::Value>::eq
                0x000000000009fc04                serde_json::value::partial_eq::<impl core::cmp::PartialEq<i8> for &serde_json::value::Value>::eq
                0x000000000009fcf0                serde_json::value::partial_eq::<impl core::cmp::PartialEq<i16> for serde_json::value::Value>::eq
                0x000000000009fdd8                serde_json::value::partial_eq::<impl core::cmp::PartialEq<serde_json::value::Value> for i16>::eq
                0x000000000009fec0                serde_json::value::partial_eq::<impl core::cmp::PartialEq<i16> for &mut serde_json::value::Value>::eq
                0x000000000009fec0                serde_json::value::partial_eq::<impl core::cmp::PartialEq<i16> for &serde_json::value::Value>::eq
                0x000000000009ffac                serde_json::value::partial_eq::<impl core::cmp::PartialEq<i32> for serde_json::value::Value>::eq
                0x00000000000a0094                serde_json::value::partial_eq::<impl core::cmp::PartialEq<serde_json::value::Value> for i32>::eq
                0x00000000000a017c                serde_json::value::partial_eq::<impl core::cmp::PartialEq<i32> for &serde_json::value::Value>::eq
                0x00000000000a017c                serde_json::value::partial_eq::<impl core::cmp::PartialEq<i32> for &mut serde_json::value::Value>::eq
                0x00000000000a0268                serde_json::value::partial_eq::<impl core::cmp::PartialEq<isize> for serde_json::value::Value>::eq
                0x00000000000a0268                serde_json::value::partial_eq::<impl core::cmp::PartialEq<i64> for serde_json::value::Value>::eq
                0x00000000000a0350                serde_json::value::partial_eq::<impl core::cmp::PartialEq<serde_json::value::Value> for isize>::eq
                0x00000000000a0350                serde_json::value::partial_eq::<impl core::cmp::PartialEq<serde_json::value::Value> for i64>::eq
                0x00000000000a0438                serde_json::value::partial_eq::<impl core::cmp::PartialEq<isize> for &mut serde_json::value::Value>::eq
                0x00000000000a0438                serde_json::value::partial_eq::<impl core::cmp::PartialEq<isize> for &serde_json::value::Value>::eq
                0x00000000000a0438                serde_json::value::partial_eq::<impl core::cmp::PartialEq<i64> for &mut serde_json::value::Value>::eq
                0x00000000000a0438                serde_json::value::partial_eq::<impl core::cmp::PartialEq<i64> for &serde_json::value::Value>::eq
                0x00000000000a0524                serde_json::value::partial_eq::<impl core::cmp::PartialEq<u8> for serde_json::value::Value>::eq
                0x00000000000a05b0                serde_json::value::partial_eq::<impl core::cmp::PartialEq<serde_json::value::Value> for u8>::eq
                0x00000000000a063c                serde_json::value::partial_eq::<impl core::cmp::PartialEq<u8> for &mut serde_json::value::Value>::eq
                0x00000000000a063c                serde_json::value::partial_eq::<impl core::cmp::PartialEq<u8> for &serde_json::value::Value>::eq
                0x00000000000a06cc                serde_json::value::partial_eq::<impl core::cmp::PartialEq<u16> for serde_json::value::Value>::eq
                0x00000000000a0758                serde_json::value::partial_eq::<impl core::cmp::PartialEq<serde_json::value::Value> for u16>::eq
                0x00000000000a07e4                serde_json::value::partial_eq::<impl core::cmp::PartialEq<u16> for &serde_json::value::Value>::eq
                0x00000000000a07e4                serde_json::value::partial_eq::<impl core::cmp::PartialEq<u16> for &mut serde_json::value::Value>::eq
                0x00000000000a0874                serde_json::value::partial_eq::<impl core::cmp::PartialEq<u32> for serde_json::value::Value>::eq
                0x00000000000a0900                serde_json::value::partial_eq::<impl core::cmp::PartialEq<serde_json::value::Value> for u32>::eq
                0x00000000000a098c                serde_json::value::partial_eq::<impl core::cmp::PartialEq<u32> for &serde_json::value::Value>::eq
                0x00000000000a098c                serde_json::value::partial_eq::<impl core::cmp::PartialEq<u32> for &mut serde_json::value::Value>::eq
                0x00000000000a0a1c                serde_json::value::partial_eq::<impl core::cmp::PartialEq<u64> for serde_json::value::Value>::eq
                0x00000000000a0a1c                serde_json::value::partial_eq::<impl core::cmp::PartialEq<usize> for serde_json::value::Value>::eq
                0x00000000000a0aa8                serde_json::value::partial_eq::<impl core::cmp::PartialEq<serde_json::value::Value> for usize>::eq
                0x00000000000a0aa8                serde_json::value::partial_eq::<impl core::cmp::PartialEq<serde_json::value::Value> for u64>::eq
                0x00000000000a0b34                serde_json::value::partial_eq::<impl core::cmp::PartialEq<usize> for &serde_json::value::Value>::eq
                0x00000000000a0b34                serde_json::value::partial_eq::<impl core::cmp::PartialEq<u64> for &serde_json::value::Value>::eq
                0x00000000000a0b34                serde_json::value::partial_eq::<impl core::cmp::PartialEq<u64> for &mut serde_json::value::Value>::eq
                0x00000000000a0b34                serde_json::value::partial_eq::<impl core::cmp::PartialEq<usize> for &mut serde_json::value::Value>::eq
                0x00000000000a0bc4                serde_json::value::partial_eq::<impl core::cmp::PartialEq<f32> for serde_json::value::Value>::eq
                0x00000000000a0ce8                serde_json::value::partial_eq::<impl core::cmp::PartialEq<serde_json::value::Value> for f32>::eq
                0x00000000000a0e0c                serde_json::value::partial_eq::<impl core::cmp::PartialEq<f32> for &mut serde_json::value::Value>::eq
                0x00000000000a0e0c                serde_json::value::partial_eq::<impl core::cmp::PartialEq<f32> for &serde_json::value::Value>::eq
                0x00000000000a0f34                serde_json::value::partial_eq::<impl core::cmp::PartialEq<f64> for serde_json::value::Value>::eq
                0x00000000000a103c                serde_json::value::partial_eq::<impl core::cmp::PartialEq<serde_json::value::Value> for f64>::eq
                0x00000000000a1144                serde_json::value::partial_eq::<impl core::cmp::PartialEq<f64> for &serde_json::value::Value>::eq
                0x00000000000a1144                serde_json::value::partial_eq::<impl core::cmp::PartialEq<f64> for &mut serde_json::value::Value>::eq
 .text          0x00000000000a1250    0x25990 /tmp/tmp.j1zMqkiwIM.o
                0x00000000000a4d3c                alloc::raw_vec::RawVec<T,A>::grow_one
                0x00000000000a7450                statrs::distribution::bernoulli::Bernoulli::new
                0x00000000000a74d4                <statrs::distribution::bernoulli::Bernoulli as core::fmt::Display>::fmt
                0x00000000000a7558                <statrs::distribution::bernoulli::Bernoulli as statrs::distribution::DiscreteCDF<u64,f64>>::cdf
                0x00000000000a7660                <statrs::distribution::bernoulli::Bernoulli as statrs::distribution::DiscreteCDF<u64,f64>>::sf
                0x00000000000a7764                <statrs::distribution::bernoulli::Bernoulli as statrs::statistics::traits::Distribution<f64>>::entropy
                0x00000000000a799c                <statrs::distribution::bernoulli::Bernoulli as statrs::statistics::traits::Distribution<f64>>::skewness
                0x00000000000a79fc                <statrs::distribution::bernoulli::Bernoulli as statrs::statistics::traits::Median<f64>>::median
                0x00000000000a7a40                <statrs::distribution::bernoulli::Bernoulli as statrs::statistics::traits::Mode<core::option::Option<u64>>>::mode
                0x00000000000a7c2c                <statrs::distribution::bernoulli::Bernoulli as statrs::distribution::Discrete<u64,f64>>::pmf
                0x00000000000a7c6c                <statrs::distribution::bernoulli::Bernoulli as statrs::distribution::Discrete<u64,f64>>::ln_pmf
                0x00000000000a7cac                <statrs::distribution::beta::BetaError as core::fmt::Display>::fmt
                0x00000000000a7d14                <statrs::distribution::beta::Beta as core::fmt::Display>::fmt
                0x00000000000a7d94                <statrs::distribution::beta::Beta as statrs::distribution::ContinuousCDF<f64,f64>>::cdf
                0x00000000000a8108                <statrs::distribution::beta::Beta as statrs::distribution::ContinuousCDF<f64,f64>>::sf
                0x00000000000a84b4                <statrs::distribution::beta::Beta as statrs::distribution::ContinuousCDF<f64,f64>>::inverse_cdf
                0x00000000000a8560                <statrs::distribution::beta::Beta as statrs::statistics::traits::Distribution<f64>>::entropy
                0x00000000000a86b8                <statrs::distribution::beta::Beta as statrs::statistics::traits::Distribution<f64>>::skewness
                0x00000000000a8728                <statrs::distribution::beta::Beta as statrs::distribution::Continuous<f64,f64>>::pdf
                0x00000000000a8b00                <statrs::distribution::beta::Beta as statrs::distribution::Continuous<f64,f64>>::ln_pdf
                0x00000000000a939c                <statrs::distribution::binomial::BinomialError as core::fmt::Display>::fmt
                0x00000000000a93dc                statrs::distribution::binomial::Binomial::new
                0x00000000000a9468                <statrs::distribution::binomial::Binomial as core::fmt::Display>::fmt
                0x00000000000a94f4                <statrs::distribution::binomial::Binomial as statrs::distribution::DiscreteCDF<u64,f64>>::cdf
                0x00000000000a95fc                <statrs::distribution::binomial::Binomial as statrs::distribution::DiscreteCDF<u64,f64>>::sf
                0x00000000000a9700                <statrs::distribution::binomial::Binomial as statrs::statistics::traits::Distribution<f64>>::entropy
                0x00000000000a9938                <statrs::distribution::binomial::Binomial as statrs::statistics::traits::Distribution<f64>>::skewness
                0x00000000000a9998                <statrs::distribution::binomial::Binomial as statrs::statistics::traits::Median<f64>>::median
                0x00000000000a99dc                <statrs::distribution::binomial::Binomial as statrs::statistics::traits::Mode<core::option::Option<u64>>>::mode
                0x00000000000a9bc8                <statrs::distribution::binomial::Binomial as statrs::distribution::Discrete<u64,f64>>::pmf
                0x00000000000aa038                <statrs::distribution::binomial::Binomial as statrs::distribution::Discrete<u64,f64>>::ln_pmf
                0x00000000000aa49c                <statrs::distribution::categorical::CategoricalError as core::fmt::Display>::fmt
                0x00000000000aa570                statrs::distribution::categorical::Categorical::new
                0x00000000000aacd8                <statrs::distribution::categorical::Categorical as core::fmt::Display>::fmt
                0x00000000000aad74                <statrs::distribution::categorical::Categorical as statrs::distribution::DiscreteCDF<u64,f64>>::cdf
                0x00000000000aadfc                <statrs::distribution::categorical::Categorical as statrs::distribution::DiscreteCDF<u64,f64>>::sf
                0x00000000000aaedc                <statrs::distribution::categorical::Categorical as statrs::distribution::DiscreteCDF<u64,f64>>::inverse_cdf
                0x00000000000ab1a4                <statrs::distribution::categorical::Categorical as statrs::statistics::traits::Distribution<f64>>::mean
                0x00000000000ab390                <statrs::distribution::categorical::Categorical as statrs::statistics::traits::Distribution<f64>>::variance
                0x00000000000ab73c                <statrs::distribution::categorical::Categorical as statrs::statistics::traits::Distribution<f64>>::entropy
                0x00000000000ab860                <statrs::distribution::categorical::Categorical as statrs::statistics::traits::Median<f64>>::median
                0x00000000000abad4                <statrs::distribution::categorical::Categorical as statrs::distribution::Discrete<u64,f64>>::ln_pmf
                0x00000000000abb30                statrs::distribution::categorical::prob_mass_to_cdf
                0x00000000000abe08                <statrs::distribution::laplace::LaplaceError as core::fmt::Display>::fmt
                0x00000000000abe08                <statrs::distribution::log_normal::LogNormalError as core::fmt::Display>::fmt
                0x00000000000abe08                <statrs::distribution::cauchy::CauchyError as core::fmt::Display>::fmt
                0x00000000000abeac                <statrs::distribution::cauchy::Cauchy as core::fmt::Display>::fmt
                0x00000000000abf2c                <statrs::distribution::cauchy::Cauchy as statrs::distribution::ContinuousCDF<f64,f64>>::cdf
                0x00000000000abf90                <statrs::distribution::cauchy::Cauchy as statrs::distribution::ContinuousCDF<f64,f64>>::sf
                0x00000000000abff4                <statrs::distribution::cauchy::Cauchy as statrs::distribution::ContinuousCDF<f64,f64>>::inverse_cdf
                0x00000000000ac0c4                <statrs::distribution::cauchy::Cauchy as statrs::statistics::traits::Distribution<f64>>::entropy
                0x00000000000ac110                <statrs::distribution::cauchy::Cauchy as statrs::distribution::Continuous<f64,f64>>::ln_pdf
                0x00000000000ac180                <statrs::distribution::chi::ChiError as core::fmt::Display>::fmt
                0x00000000000ac1c0                <statrs::distribution::chi::Chi as core::fmt::Display>::fmt
                0x00000000000ac234                <statrs::distribution::chi::Chi as statrs::distribution::ContinuousCDF<f64,f64>>::cdf
                0x00000000000ac354                <statrs::distribution::chi::Chi as statrs::distribution::ContinuousCDF<f64,f64>>::sf
                0x00000000000ac474                <statrs::distribution::chi::Chi as statrs::statistics::traits::Distribution<f64>>::mean
                0x00000000000ac58c                <statrs::distribution::chi::Chi as statrs::statistics::traits::Distribution<f64>>::variance
                0x00000000000ac6d0                <statrs::distribution::chi::Chi as statrs::statistics::traits::Distribution<f64>>::entropy
                0x00000000000ac768                <statrs::distribution::chi::Chi as statrs::statistics::traits::Distribution<f64>>::skewness
                0x00000000000ac8d0                <statrs::distribution::chi::Chi as statrs::statistics::traits::Mode<core::option::Option<f64>>>::mode
                0x00000000000ac918                <statrs::distribution::chi::Chi as statrs::distribution::Continuous<f64,f64>>::pdf
                0x00000000000acadc                <statrs::distribution::chi::Chi as statrs::distribution::Continuous<f64,f64>>::ln_pdf
                0x00000000000acc08                statrs::distribution::chi_squared::ChiSquared::new
                0x00000000000accac                <statrs::distribution::chi_squared::ChiSquared as core::fmt::Display>::fmt
                0x00000000000acd24                <statrs::distribution::chi_squared::ChiSquared as statrs::distribution::ContinuousCDF<f64,f64>>::cdf
                0x00000000000acd64                <statrs::distribution::chi_squared::ChiSquared as statrs::distribution::ContinuousCDF<f64,f64>>::sf
                0x00000000000acda4                <statrs::distribution::chi_squared::ChiSquared as statrs::distribution::ContinuousCDF<f64,f64>>::inverse_cdf
                0x00000000000acde4                <statrs::distribution::chi_squared::ChiSquared as statrs::statistics::traits::Distribution<f64>>::entropy
                0x00000000000ace5c                <statrs::distribution::chi_squared::ChiSquared as statrs::statistics::traits::Distribution<f64>>::skewness
                0x00000000000acea4                <statrs::distribution::chi_squared::ChiSquared as statrs::distribution::Continuous<f64,f64>>::pdf
                0x00000000000acee4                <statrs::distribution::chi_squared::ChiSquared as statrs::distribution::Continuous<f64,f64>>::ln_pdf
                0x00000000000ad148                <statrs::distribution::dirac::DiracError as core::fmt::Display>::fmt
                0x00000000000ad188                <statrs::distribution::dirac::Dirac as core::fmt::Display>::fmt
                0x00000000000ad1fc                <statrs::distribution::dirichlet::DirichletError as core::fmt::Display>::fmt
                0x00000000000ad2a0                statrs::distribution::dirichlet::Dirichlet<nalgebra::base::dimension::Dyn>::new
                0x00000000000ad5cc                statrs::distribution::dirichlet::Dirichlet<nalgebra::base::dimension::Dyn>::new_with_param
                0x00000000000ad9c8                <statrs::distribution::discrete_uniform::DiscreteUniformError as core::fmt::Display>::fmt
                0x00000000000ada08                <statrs::distribution::discrete_uniform::DiscreteUniform as core::fmt::Display>::fmt
                0x00000000000ada88                <statrs::distribution::discrete_uniform::DiscreteUniform as statrs::statistics::traits::Distribution<f64>>::entropy
                0x00000000000adad8                <statrs::distribution::discrete_uniform::DiscreteUniform as statrs::statistics::traits::Mode<core::option::Option<i64>>>::mode
                0x00000000000adb20                <statrs::distribution::discrete_uniform::DiscreteUniform as statrs::distribution::Discrete<i64,f64>>::ln_pmf
                0x00000000000adbb8                statrs::distribution::empirical::Empirical::add
                0x00000000000ae9fc                statrs::distribution::empirical::Empirical::remove
                0x00000000000aefb8                statrs::distribution::empirical::Empirical::__inverse_cdf
                0x00000000000afcc4                <statrs::distribution::empirical::Empirical as core::fmt::Display>::fmt
                0x00000000000b0900                <statrs::distribution::empirical::Empirical as statrs::statistics::traits::Max<f64>>::max
                0x00000000000b0b4c                <statrs::distribution::empirical::Empirical as statrs::statistics::traits::Min<f64>>::min
                0x00000000000b0c24                <statrs::distribution::empirical::Empirical as statrs::distribution::ContinuousCDF<f64,f64>>::cdf
                0x00000000000b0d90                <statrs::distribution::empirical::Empirical as statrs::distribution::ContinuousCDF<f64,f64>>::sf
                0x00000000000b0f00                <statrs::distribution::empirical::Empirical as statrs::distribution::ContinuousCDF<f64,f64>>::inverse_cdf
                0x00000000000b0f40                statrs::distribution::erlang::Erlang::new
                0x00000000000b0ff8                <statrs::distribution::erlang::Erlang as core::fmt::Display>::fmt
                0x00000000000b1094                <statrs::distribution::erlang::Erlang as statrs::distribution::ContinuousCDF<f64,f64>>::cdf
                0x00000000000b10d4                <statrs::distribution::erlang::Erlang as statrs::distribution::ContinuousCDF<f64,f64>>::sf
                0x00000000000b1114                <statrs::distribution::erlang::Erlang as statrs::distribution::ContinuousCDF<f64,f64>>::inverse_cdf
                0x00000000000b1154                <statrs::distribution::erlang::Erlang as statrs::statistics::traits::Distribution<f64>>::entropy
                0x00000000000b11cc                <statrs::distribution::erlang::Erlang as statrs::statistics::traits::Distribution<f64>>::skewness
                0x00000000000b1214                <statrs::distribution::erlang::Erlang as statrs::distribution::Continuous<f64,f64>>::pdf
                0x00000000000b1254                <statrs::distribution::erlang::Erlang as statrs::distribution::Continuous<f64,f64>>::ln_pdf
                0x00000000000b14b8                <statrs::distribution::exponential::ExpError as core::fmt::Display>::fmt
                0x00000000000b14f8                <statrs::distribution::exponential::Exp as core::fmt::Display>::fmt
                0x00000000000b1570                <statrs::distribution::exponential::Exp as statrs::distribution::ContinuousCDF<f64,f64>>::cdf
                0x00000000000b15f4                <statrs::distribution::exponential::Exp as statrs::distribution::ContinuousCDF<f64,f64>>::sf
                0x00000000000b1678                <statrs::distribution::exponential::Exp as statrs::distribution::ContinuousCDF<f64,f64>>::inverse_cdf
                0x00000000000b16cc                <statrs::distribution::exponential::Exp as statrs::statistics::traits::Distribution<f64>>::entropy
                0x00000000000b1714                <statrs::distribution::exponential::Exp as statrs::distribution::Continuous<f64,f64>>::pdf
                0x00000000000b1794                <statrs::distribution::exponential::Exp as statrs::distribution::Continuous<f64,f64>>::ln_pdf
                0x00000000000b1820                <statrs::distribution::fisher_snedecor::FisherSnedecorError as core::fmt::Display>::fmt
                0x00000000000b1888                statrs::distribution::fisher_snedecor::FisherSnedecor::new
                0x00000000000b1a14                <statrs::distribution::fisher_snedecor::FisherSnedecor as core::fmt::Display>::fmt
                0x00000000000b1a94                <statrs::distribution::fisher_snedecor::FisherSnedecor as statrs::distribution::ContinuousCDF<f64,f64>>::cdf
                0x00000000000b1bd4                <statrs::distribution::fisher_snedecor::FisherSnedecor as statrs::distribution::ContinuousCDF<f64,f64>>::sf
                0x00000000000b1d1c                <statrs::distribution::fisher_snedecor::FisherSnedecor as statrs::distribution::ContinuousCDF<f64,f64>>::inverse_cdf
                0x00000000000b1dfc                <statrs::distribution::fisher_snedecor::FisherSnedecor as statrs::statistics::traits::Distribution<f64>>::skewness
                0x00000000000b1ec4                <statrs::distribution::fisher_snedecor::FisherSnedecor as statrs::distribution::Continuous<f64,f64>>::pdf
                0x00000000000b20b0                <statrs::distribution::fisher_snedecor::FisherSnedecor as statrs::distribution::Continuous<f64,f64>>::ln_pdf
                0x00000000000b20fc                <statrs::distribution::gamma::GammaError as core::fmt::Display>::fmt
                0x00000000000b21d0                <statrs::distribution::gamma::Gamma as core::fmt::Display>::fmt
                0x00000000000b2250                <statrs::distribution::gamma::Gamma as statrs::distribution::ContinuousCDF<f64,f64>>::cdf
                0x00000000000b252c                <statrs::distribution::gamma::Gamma as statrs::distribution::ContinuousCDF<f64,f64>>::sf
                0x00000000000b2808                <statrs::distribution::gamma::Gamma as statrs::distribution::ContinuousCDF<f64,f64>>::inverse_cdf
                0x00000000000b356c                <statrs::distribution::gamma::Gamma as statrs::statistics::traits::Distribution<f64>>::entropy
                0x00000000000b35e4                <statrs::distribution::gamma::Gamma as statrs::statistics::traits::Distribution<f64>>::skewness
                0x00000000000b362c                <statrs::distribution::gamma::Gamma as statrs::distribution::Continuous<f64,f64>>::pdf
                0x00000000000b3a78                <statrs::distribution::gamma::Gamma as statrs::distribution::Continuous<f64,f64>>::ln_pdf
                0x00000000000b3cdc                <statrs::distribution::geometric::GeometricError as core::fmt::Display>::fmt
                0x00000000000b3d1c                <statrs::distribution::geometric::Geometric as core::fmt::Display>::fmt
                0x00000000000b3d94                <statrs::distribution::geometric::Geometric as statrs::distribution::DiscreteCDF<u64,f64>>::cdf
                0x00000000000b3e20                <statrs::distribution::geometric::Geometric as statrs::distribution::DiscreteCDF<u64,f64>>::sf
                0x00000000000b3eac                <statrs::distribution::geometric::Geometric as statrs::statistics::traits::Distribution<f64>>::entropy
                0x00000000000b3f2c                <statrs::distribution::geometric::Geometric as statrs::statistics::traits::Distribution<f64>>::skewness
                0x00000000000b40c0                <statrs::distribution::geometric::Geometric as statrs::statistics::traits::Median<f64>>::median
                0x00000000000b4114                <statrs::distribution::geometric::Geometric as statrs::distribution::Discrete<u64,f64>>::pmf
                0x00000000000b41a4                <statrs::distribution::geometric::Geometric as statrs::distribution::Discrete<u64,f64>>::ln_pmf
                0x00000000000b4404                <statrs::distribution::gumbel::GumbelError as core::fmt::Display>::fmt
                0x00000000000b44a8                <statrs::distribution::gumbel::Gumbel as core::fmt::Display>::fmt
                0x00000000000b4528                <statrs::distribution::gumbel::Gumbel as statrs::distribution::ContinuousCDF<f64,f64>>::cdf
                0x00000000000b4580                <statrs::distribution::gumbel::Gumbel as statrs::distribution::ContinuousCDF<f64,f64>>::inverse_cdf
                0x00000000000b461c                <statrs::distribution::gumbel::Gumbel as statrs::distribution::ContinuousCDF<f64,f64>>::sf
                0x00000000000b467c                <statrs::distribution::gumbel::Gumbel as statrs::statistics::traits::Distribution<f64>>::entropy
                0x00000000000b46c8                <statrs::distribution::gumbel::Gumbel as statrs::statistics::traits::Distribution<f64>>::std_dev
                0x00000000000b471c                <statrs::distribution::gumbel::Gumbel as statrs::statistics::traits::Median<f64>>::median
                0x00000000000b4768                <statrs::distribution::gumbel::Gumbel as statrs::distribution::Continuous<f64,f64>>::pdf
                0x00000000000b47d4                <statrs::distribution::gumbel::Gumbel as statrs::distribution::Continuous<f64,f64>>::ln_pdf
                0x00000000000b4840                <statrs::distribution::hypergeometric::HypergeometricError as core::fmt::Display>::fmt
                0x00000000000b48e4                <statrs::distribution::hypergeometric::Hypergeometric as core::fmt::Display>::fmt
                0x00000000000b496c                <statrs::distribution::hypergeometric::Hypergeometric as statrs::distribution::DiscreteCDF<u64,f64>>::cdf
                0x00000000000b50d4                <statrs::distribution::hypergeometric::Hypergeometric as statrs::distribution::DiscreteCDF<u64,f64>>::sf
                0x00000000000b5470                <statrs::distribution::hypergeometric::Hypergeometric as statrs::statistics::traits::Min<u64>>::min
                0x00000000000b54b8                <statrs::distribution::hypergeometric::Hypergeometric as statrs::statistics::traits::Max<u64>>::max
                0x00000000000b54f8                <statrs::distribution::hypergeometric::Hypergeometric as statrs::statistics::traits::Distribution<f64>>::skewness
                0x00000000000b55cc                <statrs::distribution::hypergeometric::Hypergeometric as statrs::statistics::traits::Mode<core::option::Option<u64>>>::mode
                0x00000000000b5674                <statrs::distribution::hypergeometric::Hypergeometric as statrs::distribution::Discrete<u64,f64>>::pmf
                0x00000000000b5dcc                <statrs::distribution::hypergeometric::Hypergeometric as statrs::distribution::Discrete<u64,f64>>::ln_pmf
                0x00000000000b64d8                <statrs::distribution::inverse_gamma::InverseGammaError as core::fmt::Display>::fmt
                0x00000000000b657c                <statrs::distribution::inverse_gamma::InverseGamma as core::fmt::Display>::fmt
                0x00000000000b65fc                <statrs::distribution::inverse_gamma::InverseGamma as statrs::distribution::ContinuousCDF<f64,f64>>::cdf
                0x00000000000b670c                <statrs::distribution::inverse_gamma::InverseGamma as statrs::distribution::ContinuousCDF<f64,f64>>::sf
                0x00000000000b681c                <statrs::distribution::inverse_gamma::InverseGamma as statrs::statistics::traits::Distribution<f64>>::entropy
                0x00000000000b6894                <statrs::distribution::inverse_gamma::InverseGamma as statrs::statistics::traits::Distribution<f64>>::skewness
                0x00000000000b6914                <statrs::distribution::inverse_gamma::InverseGamma as statrs::distribution::Continuous<f64,f64>>::pdf
                0x00000000000b6ba4                <statrs::distribution::inverse_gamma::InverseGamma as statrs::distribution::Continuous<f64,f64>>::ln_pdf
                0x00000000000b6e5c                <statrs::distribution::laplace::Laplace as core::fmt::Display>::fmt
                0x00000000000b6edc                <statrs::distribution::laplace::Laplace as statrs::distribution::ContinuousCDF<f64,f64>>::cdf
                0x00000000000b6f48                <statrs::distribution::laplace::Laplace as statrs::distribution::ContinuousCDF<f64,f64>>::sf
                0x00000000000b6fb4                <statrs::distribution::laplace::Laplace as statrs::distribution::ContinuousCDF<f64,f64>>::inverse_cdf
                0x00000000000b70ec                <statrs::distribution::laplace::Laplace as statrs::statistics::traits::Distribution<f64>>::entropy
                0x00000000000b7138                <statrs::distribution::laplace::Laplace as statrs::distribution::Continuous<f64,f64>>::pdf
                0x00000000000b7194                <statrs::distribution::laplace::Laplace as statrs::distribution::Continuous<f64,f64>>::ln_pdf
                0x00000000000b71f0                <statrs::distribution::log_normal::LogNormal as core::fmt::Display>::fmt
                0x00000000000b7270                <statrs::distribution::log_normal::LogNormal as statrs::distribution::ContinuousCDF<f64,f64>>::cdf
                0x00000000000b73e0                <statrs::distribution::log_normal::LogNormal as statrs::distribution::ContinuousCDF<f64,f64>>::sf
                0x00000000000b7548                <statrs::distribution::log_normal::LogNormal as statrs::distribution::ContinuousCDF<f64,f64>>::inverse_cdf
                0x00000000000b77a0                <statrs::distribution::log_normal::LogNormal as statrs::statistics::traits::Distribution<f64>>::mean
                0x00000000000b77f4                <statrs::distribution::log_normal::LogNormal as statrs::statistics::traits::Distribution<f64>>::variance
                0x00000000000b7860                <statrs::distribution::log_normal::LogNormal as statrs::statistics::traits::Distribution<f64>>::entropy
                0x00000000000b78bc                <statrs::distribution::log_normal::LogNormal as statrs::statistics::traits::Distribution<f64>>::skewness
                0x00000000000b7918                <statrs::distribution::log_normal::LogNormal as statrs::statistics::traits::Median<f64>>::median
                0x00000000000b7950                <statrs::distribution::log_normal::LogNormal as statrs::statistics::traits::Mode<core::option::Option<f64>>>::mode
                0x00000000000b7998                <statrs::distribution::log_normal::LogNormal as statrs::distribution::Continuous<f64,f64>>::pdf
                0x00000000000b7a94                <statrs::distribution::log_normal::LogNormal as statrs::distribution::Continuous<f64,f64>>::ln_pdf
                0x00000000000b7b94                <statrs::distribution::multinomial::MultinomialError as core::fmt::Display>::fmt
                0x00000000000b7c68                statrs::distribution::multinomial::Multinomial<nalgebra::base::dimension::Dyn>::new
                0x00000000000b8244                <statrs::distribution::multivariate_normal::MultivariateNormalError as core::fmt::Display>::fmt
                0x00000000000b8348                statrs::distribution::multivariate_normal::MultivariateNormal<nalgebra::base::dimension::Dyn>::new
                0x00000000000b96a8                <statrs::distribution::multivariate_students_t::MultivariateStudentError as core::fmt::Display>::fmt
                0x00000000000b97dc                statrs::distribution::multivariate_students_t::MultivariateStudent<nalgebra::base::dimension::Dyn>::new
                0x00000000000bab1c                statrs::distribution::multivariate_students_t::MultivariateStudent<nalgebra::base::dimension::Dyn>::dim
                0x00000000000bab4c                <statrs::distribution::negative_binomial::NegativeBinomialError as core::fmt::Display>::fmt
                0x00000000000babf0                statrs::distribution::negative_binomial::NegativeBinomial::new
                0x00000000000bacc4                <statrs::distribution::negative_binomial::NegativeBinomial as core::fmt::Display>::fmt
                0x00000000000bad44                <statrs::distribution::negative_binomial::NegativeBinomial as statrs::distribution::DiscreteCDF<u64,f64>>::cdf
                0x00000000000bae10                <statrs::distribution::negative_binomial::NegativeBinomial as statrs::distribution::DiscreteCDF<u64,f64>>::sf
                0x00000000000baee4                <statrs::distribution::negative_binomial::NegativeBinomial as statrs::statistics::traits::DiscreteDistribution<f64>>::skewness
                0x00000000000baf3c                <statrs::distribution::negative_binomial::NegativeBinomial as statrs::statistics::traits::Mode<core::option::Option<f64>>>::mode
                0x00000000000bafd0                <statrs::distribution::negative_binomial::NegativeBinomial as statrs::distribution::Discrete<u64,f64>>::pmf
                0x00000000000bb078                <statrs::distribution::negative_binomial::NegativeBinomial as statrs::distribution::Discrete<u64,f64>>::ln_pmf
                0x00000000000bb120                <statrs::distribution::normal::NormalError as core::fmt::Display>::fmt
                0x00000000000bb1c4                <statrs::distribution::normal::Normal as core::fmt::Display>::fmt
                0x00000000000bb244                <statrs::distribution::normal::Normal as statrs::distribution::ContinuousCDF<f64,f64>>::cdf
                0x00000000000bb358                <statrs::distribution::normal::Normal as statrs::distribution::ContinuousCDF<f64,f64>>::sf
                0x00000000000bb46c                <statrs::distribution::normal::Normal as statrs::distribution::ContinuousCDF<f64,f64>>::inverse_cdf
                0x00000000000bb638                <statrs::distribution::normal::Normal as statrs::statistics::traits::Distribution<f64>>::entropy
                0x00000000000bb684                <statrs::distribution::normal::Normal as statrs::distribution::Continuous<f64,f64>>::pdf
                0x00000000000bb6f0                <statrs::distribution::normal::Normal as statrs::distribution::Continuous<f64,f64>>::ln_pdf
                0x00000000000bb75c                <statrs::distribution::pareto::ParetoError as core::fmt::Display>::fmt
                0x00000000000bb7c4                <statrs::distribution::pareto::Pareto as core::fmt::Display>::fmt
                0x00000000000bb844                <statrs::distribution::pareto::Pareto as statrs::distribution::ContinuousCDF<f64,f64>>::cdf
                0x00000000000bb8cc                <statrs::distribution::pareto::Pareto as statrs::distribution::ContinuousCDF<f64,f64>>::sf
                0x00000000000bb954                <statrs::distribution::pareto::Pareto as statrs::distribution::ContinuousCDF<f64,f64>>::inverse_cdf
                0x00000000000bba1c                <statrs::distribution::pareto::Pareto as statrs::statistics::traits::Distribution<f64>>::entropy
                0x00000000000bba8c                <statrs::distribution::pareto::Pareto as statrs::statistics::traits::Distribution<f64>>::skewness
                0x00000000000bbb34                <statrs::distribution::pareto::Pareto as statrs::statistics::traits::Median<f64>>::median
                0x00000000000bbb84                <statrs::distribution::pareto::Pareto as statrs::distribution::Continuous<f64,f64>>::pdf
                0x00000000000bbc28                <statrs::distribution::pareto::Pareto as statrs::distribution::Continuous<f64,f64>>::ln_pdf
                0x00000000000bbce4                <statrs::distribution::poisson::PoissonError as core::fmt::Display>::fmt
                0x00000000000bbd24                <statrs::distribution::poisson::Poisson as core::fmt::Display>::fmt
                0x00000000000bbd9c                <statrs::distribution::poisson::Poisson as statrs::distribution::DiscreteCDF<u64,f64>>::cdf
                0x00000000000bbe68                <statrs::distribution::poisson::Poisson as statrs::distribution::DiscreteCDF<u64,f64>>::sf
                0x00000000000bbf34                <statrs::distribution::poisson::Poisson as statrs::statistics::traits::Distribution<f64>>::entropy
                0x00000000000bbfe4                <statrs::distribution::poisson::Poisson as statrs::statistics::traits::Distribution<f64>>::skewness
                0x00000000000bc02c                <statrs::distribution::poisson::Poisson as statrs::statistics::traits::Median<f64>>::median
                0x00000000000bc088                <statrs::distribution::poisson::Poisson as statrs::statistics::traits::Mode<core::option::Option<u64>>>::mode
                0x00000000000bc0c8                <statrs::distribution::poisson::Poisson as statrs::distribution::Discrete<u64,f64>>::pmf
                0x00000000000bc1cc                <statrs::distribution::poisson::Poisson as statrs::distribution::Discrete<u64,f64>>::ln_pmf
                0x00000000000bc2d0                <statrs::distribution::students_t::StudentsTError as core::fmt::Display>::fmt
                0x00000000000bc3a4                <statrs::distribution::students_t::StudentsT as core::fmt::Display>::fmt
                0x00000000000bc42c                <statrs::distribution::students_t::StudentsT as statrs::distribution::ContinuousCDF<f64,f64>>::cdf
                0x00000000000bc69c                <statrs::distribution::students_t::StudentsT as statrs::distribution::ContinuousCDF<f64,f64>>::sf
                0x00000000000bc90c                <statrs::distribution::students_t::StudentsT as statrs::distribution::ContinuousCDF<f64,f64>>::inverse_cdf
                0x00000000000bca68                <statrs::distribution::students_t::StudentsT as statrs::statistics::traits::Distribution<f64>>::entropy
                0x00000000000bcbac                <statrs::distribution::students_t::StudentsT as statrs::distribution::Continuous<f64,f64>>::pdf
                0x00000000000bcd40                <statrs::distribution::students_t::StudentsT as statrs::distribution::Continuous<f64,f64>>::ln_pdf
                0x00000000000bcee0                <statrs::distribution::triangular::TriangularError as core::fmt::Display>::fmt
                0x00000000000bd00c                statrs::distribution::triangular::Triangular::new
                0x00000000000bd234                <statrs::distribution::triangular::Triangular as core::fmt::Display>::fmt
                0x00000000000bd2bc                <statrs::distribution::triangular::Triangular as statrs::distribution::ContinuousCDF<f64,f64>>::inverse_cdf
                0x00000000000bd428                <statrs::distribution::triangular::Triangular as statrs::statistics::traits::Distribution<f64>>::entropy
                0x00000000000bd480                <statrs::distribution::triangular::Triangular as statrs::statistics::traits::Distribution<f64>>::skewness
                0x00000000000bd540                <statrs::distribution::triangular::Triangular as statrs::statistics::traits::Median<f64>>::median
                0x00000000000bd610                <statrs::distribution::triangular::Triangular as statrs::distribution::Continuous<f64,f64>>::ln_pdf
                0x00000000000bd748                <statrs::distribution::uniform::UniformError as core::fmt::Display>::fmt
                0x00000000000bd814                statrs::distribution::uniform::Uniform::new
                0x00000000000bd970                <statrs::distribution::uniform::Uniform as core::fmt::Display>::fmt
                0x00000000000bd9f0                <statrs::distribution::uniform::Uniform as statrs::distribution::ContinuousCDF<f64,f64>>::inverse_cdf
                0x00000000000bdb2c                <statrs::distribution::uniform::Uniform as statrs::statistics::traits::Distribution<f64>>::entropy
                0x00000000000bdb70                <statrs::distribution::uniform::Uniform as statrs::distribution::Continuous<f64,f64>>::ln_pdf
                0x00000000000bdc08                <statrs::distribution::weibull::WeibullError as core::fmt::Display>::fmt
                0x00000000000bdc70                statrs::distribution::weibull::Weibull::new
                0x00000000000bdd40                <statrs::distribution::weibull::Weibull as core::fmt::Display>::fmt
                0x00000000000bddc0                <statrs::distribution::weibull::Weibull as statrs::distribution::ContinuousCDF<f64,f64>>::cdf
                0x00000000000bde4c                <statrs::distribution::weibull::Weibull as statrs::distribution::ContinuousCDF<f64,f64>>::sf
                0x00000000000bdedc                <statrs::distribution::weibull::Weibull as statrs::distribution::ContinuousCDF<f64,f64>>::inverse_cdf
                0x00000000000bdfa4                <statrs::distribution::weibull::Weibull as statrs::statistics::traits::Distribution<f64>>::mean
                0x00000000000bdffc                <statrs::distribution::weibull::Weibull as statrs::statistics::traits::Distribution<f64>>::variance
                0x00000000000be07c                <statrs::distribution::weibull::Weibull as statrs::statistics::traits::Distribution<f64>>::entropy
                0x00000000000be0e8                <statrs::distribution::weibull::Weibull as statrs::statistics::traits::Distribution<f64>>::skewness
                0x00000000000be1b4                <statrs::distribution::weibull::Weibull as statrs::statistics::traits::Median<f64>>::median
                0x00000000000be20c                <statrs::distribution::weibull::Weibull as statrs::statistics::traits::Mode<core::option::Option<f64>>>::mode
                0x00000000000be3b0                <statrs::distribution::weibull::Weibull as statrs::distribution::Continuous<f64,f64>>::pdf
                0x00000000000be634                <statrs::distribution::weibull::Weibull as statrs::distribution::Continuous<f64,f64>>::ln_pdf
                0x00000000000be8e4                <i64 as statrs::euclid::Modulus>::modulus
                0x00000000000bea48                <i32 as statrs::euclid::Modulus>::modulus
                0x00000000000bebac                <u64 as statrs::euclid::Modulus>::modulus
                0x00000000000bec50                <u32 as statrs::euclid::Modulus>::modulus
                0x00000000000becf4                <statrs::function::beta::BetaFuncError as core::fmt::Display>::fmt
                0x00000000000bedc0                statrs::function::beta::ln_beta
                0x00000000000beea0                statrs::function::beta::checked_ln_beta
                0x00000000000bef90                statrs::function::beta::beta
                0x00000000000bf070                statrs::function::beta::checked_beta
                0x00000000000bf150                statrs::function::beta::beta_inc
                0x00000000000bf2c0                statrs::function::beta::checked_beta_inc
                0x00000000000bf450                statrs::function::beta::beta_reg
                0x00000000000bf51c                statrs::function::beta::checked_beta_reg
                0x00000000000bfb6c                statrs::function::beta::inv_beta_reg
                0x00000000000c033c                statrs::function::erf::erf
                0x00000000000c0440                statrs::function::erf::erf_inv
                0x00000000000c0564                statrs::function::erf::erfc
                0x00000000000c0638                statrs::function::erf::erfc_inv
                0x00000000000c1c40                statrs::function::evaluate::polynomial
                0x00000000000c1d24                statrs::function::exponential::integral
                0x00000000000c23c0                statrs::function::factorial::factorial
                0x00000000000c2434                statrs::function::factorial::ln_factorial
                0x00000000000c24d8                statrs::function::factorial::binomial
                0x00000000000c2738                statrs::function::factorial::ln_binomial
                0x00000000000c298c                statrs::function::factorial::multinomial
                0x00000000000c2c08                statrs::function::factorial::checked_multinomial
                0x00000000000c2e68                <statrs::function::gamma::GammaFuncError as core::fmt::Display>::fmt
                0x00000000000c2ed0                statrs::function::gamma::ln_gamma
                0x00000000000c3200                statrs::function::gamma::gamma
                0x00000000000c3508                statrs::function::gamma::gamma_ui
                0x00000000000c35e0                statrs::function::gamma::checked_gamma_ui
                0x00000000000c36cc                statrs::function::gamma::gamma_li
                0x00000000000c37a4                statrs::function::gamma::checked_gamma_li
                0x00000000000c3890                statrs::function::gamma::gamma_ur
                0x00000000000c394c                statrs::function::gamma::checked_gamma_ur
                0x00000000000c3e48                statrs::function::gamma::gamma_lr
                0x00000000000c3f04                statrs::function::gamma::checked_gamma_lr
                0x00000000000c447c                statrs::function::gamma::digamma
                0x00000000000c4844                statrs::function::gamma::inv_digamma
                0x00000000000c4a2c                statrs::function::harmonic::harmonic
                0x00000000000c4ab0                statrs::function::harmonic::gen_harmonic
                0x00000000000c4c74                statrs::function::logistic::logistic
                0x00000000000c4cc4                statrs::function::logistic::logit
                0x00000000000c4d4c                statrs::function::logistic::checked_logit
                0x00000000000c4dbc                statrs::generate::log_spaced
                0x00000000000c52a4                <statrs::generate::InfinitePeriodic as core::fmt::Display>::fmt
                0x00000000000c5348                <statrs::generate::InfiniteSinusoidal as core::fmt::Display>::fmt
                0x00000000000c53f4                <statrs::generate::InfiniteSinusoidal as core::iter::traits::iterator::Iterator>::next
                0x00000000000c54e8                <statrs::generate::InfiniteSquare as core::fmt::Display>::fmt
                0x00000000000c5594                <statrs::generate::InfiniteTriangle as core::fmt::Display>::fmt
                0x00000000000c5640                <statrs::generate::InfiniteSawtooth as core::fmt::Display>::fmt
                0x00000000000c56ec                statrs::prec::almost_eq
                0x00000000000c57bc                statrs::prec::convergence
                0x00000000000c58e0                statrs::statistics::slice_statistics::handle_rank_ties
                0x00000000000c6060                <statrs::stats_tests::fisher::FishersExactTestError as core::fmt::Display>::fmt
                0x00000000000c6180                statrs::stats_tests::fisher::fishers_exact_with_odds_ratio
                0x00000000000c63c0                statrs::stats_tests::fisher::fishers_exact
 .text          0x00000000000c6be0     0x3a78 /tmp/tmp.1AvJ5bNGPW.o
                0x00000000000c6d98                alloc::raw_vec::RawVec<T,A>::grow_one
                0x00000000000c6f30                ndarray::arrayformat::format_with_overflow
                0x00000000000c72e0                <ndarray::error::ShapeError as core::fmt::Display>::fmt
                0x00000000000c7410                <ndarray::error::ShapeError as core::fmt::Debug>::fmt
                0x00000000000c748c                ndarray::layout::layoutfmt::<impl core::fmt::Debug for ndarray::layout::Layout>::fmt
                0x00000000000c7908                <ndarray::slice::SliceInfoElem as core::fmt::Display>::fmt
                0x00000000000c7c24                <[ndarray::slice::SliceInfoElem] as ndarray::slice::SliceArg<ndarray::dimension::dim::Dim<ndarray::dimension::dynindeximpl::IxDynImpl>>>::in_ndim
                0x00000000000c7d74                <[ndarray::slice::SliceInfoElem] as ndarray::slice::SliceArg<ndarray::dimension::dim::Dim<ndarray::dimension::dynindeximpl::IxDynImpl>>>::out_ndim
                0x00000000000c7ec4                <ndarray::low_level_util::AbortIfPanic as core::ops::drop::Drop>::drop
                0x00000000000c7f24                ndarray::dimension::dimension_trait::<impl core::ops::index::Index<usize> for ndarray::dimension::dim::Dim<ndarray::dimension::dynindeximpl::IxDynImpl>>::index
                0x00000000000c7f24                ndarray::dimension::dimension_trait::<impl core::ops::index::IndexMut<usize> for ndarray::dimension::dim::Dim<ndarray::dimension::dynindeximpl::IxDynImpl>>::index_mut
                0x00000000000c7fec                <ndarray::dimension::dynindeximpl::IxDynRepr<usize> as core::default::Default>::default
                0x00000000000c802c                ndarray::dimension::dynindeximpl::IxDynImpl::insert
                0x00000000000c86c4                ndarray::dimension::dynindeximpl::<impl ndarray::dimension::remove_axis::RemoveAxis for ndarray::dimension::dim::Dim<ndarray::dimension::dynindeximpl::IxDynImpl>>::remove_axis
                0x00000000000c8c08                ndarray::dimension::ndindex::<impl ndarray::dimension::conversion::IntoDimension for &[usize]>::into_dimension
                0x00000000000c8e04                <&ndarray::dimension::dim::Dim<ndarray::dimension::dynindeximpl::IxDynImpl> as ndarray::dimension::ndindex::NdIndex<ndarray::dimension::dim::Dim<ndarray::dimension::dynindeximpl::IxDynImpl>>>::index_checked
                0x00000000000c8f78                <&ndarray::dimension::dim::Dim<ndarray::dimension::dynindeximpl::IxDynImpl> as ndarray::dimension::ndindex::NdIndex<ndarray::dimension::dim::Dim<ndarray::dimension::dynindeximpl::IxDynImpl>>>::index_unchecked
                0x00000000000c9140                <&[usize] as ndarray::dimension::ndindex::NdIndex<ndarray::dimension::dim::Dim<ndarray::dimension::dynindeximpl::IxDynImpl>>>::index_checked
                0x00000000000c92a0                <&[usize] as ndarray::dimension::ndindex::NdIndex<ndarray::dimension::dim::Dim<ndarray::dimension::dynindeximpl::IxDynImpl>>>::index_unchecked
                0x00000000000c9454                ndarray::dimension::do_slice
                0x00000000000c972c                ndarray::dimension::arith_seq_intersect
                0x00000000000c9d24                ndarray::dimension::slice_min_max
                0x00000000000ca00c                ndarray::dimension::conversion::<impl num_traits::identities::Zero for ndarray::dimension::dim::Dim<[usize; 0]>>::is_zero
                0x00000000000ca014                ndarray::dimension::conversion::<impl num_traits::identities::Zero for ndarray::dimension::dim::Dim<[usize; 1]>>::is_zero
                0x00000000000ca054                ndarray::dimension::conversion::<impl num_traits::identities::Zero for ndarray::dimension::dim::Dim<[usize; 2]>>::is_zero
                0x00000000000ca098                ndarray::dimension::conversion::<impl num_traits::identities::Zero for ndarray::dimension::dim::Dim<[usize; 3]>>::is_zero
                0x00000000000ca0e4                ndarray::dimension::conversion::<impl num_traits::identities::Zero for ndarray::dimension::dim::Dim<[usize; 4]>>::is_zero
                0x00000000000ca140                ndarray::dimension::conversion::<impl num_traits::identities::Zero for ndarray::dimension::dim::Dim<[usize; 5]>>::is_zero
                0x00000000000ca1a4                ndarray::dimension::conversion::<impl num_traits::identities::Zero for ndarray::dimension::dim::Dim<[usize; 6]>>::is_zero
                0x00000000000ca210                <ndarray::dimension::dim::Dim<[usize; 6]> as ndarray::dimension::dimension_trait::Dimension>::insert_axis
 .text          0x00000000000ca658     0x1198 /tmp/tmp.T4JcO1buAE.o
                0x00000000000ca658                std::io::error::Error::new
                0x00000000000ca98c                <getrandom::error::Error as core::fmt::Debug>::fmt
                0x00000000000cacd8                <getrandom::error::Error as core::fmt::Display>::fmt
                0x00000000000cb018                getrandom::error_impls::<impl core::convert::From<getrandom::error::Error> for std::io::error::Error>::from
                0x00000000000cb0dc                getrandom::imp::getrandom_inner
 .text          0x00000000000cb7f0     0x32a8 /tmp/tmp.tnd3D19n8w.o
                0x00000000000cbdc8                <num_traits::ParseFloatError as core::fmt::Display>::fmt
                0x00000000000cbe34                <f32 as num_traits::Num>::from_str_radix
                0x00000000000cd46c                <f64 as num_traits::Num>::from_str_radix
 .text          0x00000000000cea98    0x1ed9c /tmp/tmp.qgbdJ0RIaK.o
                0x00000000000cea98                wide::<impl core::fmt::Binary for wide::f32x8_::f32x8>::fmt
                0x00000000000cea98                wide::<impl core::fmt::Binary for wide::u32x8_::u32x8>::fmt
                0x00000000000cee58                wide::<impl core::fmt::Binary for wide::u32x4_::u32x4>::fmt
                0x00000000000cee58                wide::<impl core::fmt::Binary for wide::f32x4_::f32x4>::fmt
                0x00000000000cf078                wide::<impl core::fmt::Binary for wide::u64x4_::u64x4>::fmt
                0x00000000000cf078                wide::<impl core::fmt::Binary for wide::f64x4_::f64x4>::fmt
                0x00000000000cf298                wide::<impl core::fmt::Binary for wide::f64x2_::f64x2>::fmt
                0x00000000000cf298                wide::<impl core::fmt::Binary for wide::u64x2_::u64x2>::fmt
                0x00000000000cf3e8                wide::<impl core::fmt::Binary for wide::i8x32_::i8x32>::fmt
                0x00000000000cf59c                wide::<impl core::fmt::Binary for wide::i8x16_::i8x16>::fmt
                0x00000000000cfcb0                wide::<impl core::fmt::Binary for wide::i16x8_::i16x8>::fmt
                0x00000000000d0074                wide::<impl core::fmt::Binary for wide::i16x16_::i16x16>::fmt
                0x00000000000d0778                wide::<impl core::fmt::Binary for wide::i32x8_::i32x8>::fmt
                0x00000000000d0b38                wide::<impl core::fmt::Binary for wide::i32x4_::i32x4>::fmt
                0x00000000000d0d58                wide::<impl core::fmt::Binary for wide::i64x2_::i64x2>::fmt
                0x00000000000d0ea8                wide::<impl core::fmt::Binary for wide::i64x4_::i64x4>::fmt
                0x00000000000d10c8                wide::<impl core::fmt::Binary for wide::u8x16_::u8x16>::fmt
                0x00000000000d17dc                wide::<impl core::fmt::Binary for wide::u16x8_::u16x8>::fmt
                0x00000000000d1ba0                wide::<impl core::fmt::Binary for wide::u16x16_::u16x16>::fmt
                0x00000000000d22a4                wide::<impl core::fmt::Debug for wide::f32x8_::f32x8>::fmt
                0x00000000000d2664                wide::<impl core::fmt::Debug for wide::f32x4_::f32x4>::fmt
                0x00000000000d2884                wide::<impl core::fmt::Debug for wide::f64x4_::f64x4>::fmt
                0x00000000000d2aa4                wide::<impl core::fmt::Debug for wide::f64x2_::f64x2>::fmt
                0x00000000000d2bf4                wide::<impl core::fmt::Debug for wide::i8x32_::i8x32>::fmt
                0x00000000000d2f14                wide::<impl core::fmt::Debug for wide::i8x16_::i8x16>::fmt
                0x00000000000d3234                wide::<impl core::fmt::Debug for wide::i16x8_::i16x8>::fmt
                0x00000000000d3b60                wide::<impl core::fmt::Debug for wide::i16x16_::i16x16>::fmt
                0x00000000000d3e80                wide::<impl core::fmt::Debug for wide::i32x8_::i32x8>::fmt
                0x00000000000d47a0                wide::<impl core::fmt::Debug for wide::i32x4_::i32x4>::fmt
                0x00000000000d4c70                wide::<impl core::fmt::Debug for wide::i64x2_::i64x2>::fmt
                0x00000000000d4f18                wide::<impl core::fmt::Debug for wide::i64x4_::i64x4>::fmt
                0x00000000000d53e8                wide::<impl core::fmt::Debug for wide::u8x16_::u8x16>::fmt
                0x00000000000d5708                wide::<impl core::fmt::Debug for wide::u16x8_::u16x8>::fmt
                0x00000000000d6034                wide::<impl core::fmt::Debug for wide::u16x16_::u16x16>::fmt
                0x00000000000d6354                wide::<impl core::fmt::Debug for wide::u32x8_::u32x8>::fmt
                0x00000000000d6c74                wide::<impl core::fmt::Debug for wide::u32x4_::u32x4>::fmt
                0x00000000000d7144                wide::<impl core::fmt::Debug for wide::u64x2_::u64x2>::fmt
                0x00000000000d73ec                wide::<impl core::fmt::Debug for wide::u64x4_::u64x4>::fmt
                0x00000000000d78bc                wide::<impl core::fmt::Display for wide::f32x8_::f32x8>::fmt
                0x00000000000d7c7c                wide::<impl core::fmt::Display for wide::f32x4_::f32x4>::fmt
                0x00000000000d7e9c                wide::<impl core::fmt::Display for wide::f64x4_::f64x4>::fmt
                0x00000000000d80bc                wide::<impl core::fmt::Display for wide::f64x2_::f64x2>::fmt
                0x00000000000d820c                wide::<impl core::fmt::Display for wide::i8x32_::i8x32>::fmt
                0x00000000000d83c0                wide::<impl core::fmt::Display for wide::i8x16_::i8x16>::fmt
                0x00000000000d8ad4                wide::<impl core::fmt::Display for wide::i16x8_::i16x8>::fmt
                0x00000000000d8e98                wide::<impl core::fmt::Display for wide::i16x16_::i16x16>::fmt
                0x00000000000d959c                wide::<impl core::fmt::Display for wide::i32x8_::i32x8>::fmt
                0x00000000000d995c                wide::<impl core::fmt::Display for wide::i32x4_::i32x4>::fmt
                0x00000000000d9b7c                wide::<impl core::fmt::Display for wide::i64x2_::i64x2>::fmt
                0x00000000000d9ccc                wide::<impl core::fmt::Display for wide::i64x4_::i64x4>::fmt
                0x00000000000d9eec                wide::<impl core::fmt::Display for wide::u8x16_::u8x16>::fmt
                0x00000000000da600                wide::<impl core::fmt::Display for wide::u16x8_::u16x8>::fmt
                0x00000000000da9c4                wide::<impl core::fmt::Display for wide::u16x16_::u16x16>::fmt
                0x00000000000db0c8                wide::<impl core::fmt::Display for wide::u32x8_::u32x8>::fmt
                0x00000000000db488                wide::<impl core::fmt::Display for wide::u32x4_::u32x4>::fmt
                0x00000000000db6a8                wide::<impl core::fmt::Display for wide::u64x2_::u64x2>::fmt
                0x00000000000db7f8                wide::<impl core::fmt::Display for wide::u64x4_::u64x4>::fmt
                0x00000000000dba18                wide::<impl core::fmt::LowerExp for wide::f32x8_::f32x8>::fmt
                0x00000000000dbdd8                wide::<impl core::fmt::LowerExp for wide::f32x4_::f32x4>::fmt
                0x00000000000dbff8                wide::<impl core::fmt::LowerExp for wide::u64x4_::u64x4>::fmt
                0x00000000000dbff8                wide::<impl core::fmt::LowerExp for wide::f64x4_::f64x4>::fmt
                0x00000000000dc218                wide::<impl core::fmt::LowerExp for wide::f64x2_::f64x2>::fmt
                0x00000000000dc218                wide::<impl core::fmt::LowerExp for wide::u64x2_::u64x2>::fmt
                0x00000000000dc368                wide::<impl core::fmt::LowerExp for wide::i8x32_::i8x32>::fmt
                0x00000000000dc51c                wide::<impl core::fmt::LowerExp for wide::i8x16_::i8x16>::fmt
                0x00000000000dcc30                wide::<impl core::fmt::LowerExp for wide::i16x8_::i16x8>::fmt
                0x00000000000dcff4                wide::<impl core::fmt::LowerExp for wide::i16x16_::i16x16>::fmt
                0x00000000000dd6f8                wide::<impl core::fmt::LowerExp for wide::i32x8_::i32x8>::fmt
                0x00000000000ddab8                wide::<impl core::fmt::LowerExp for wide::i32x4_::i32x4>::fmt
                0x00000000000ddcd8                wide::<impl core::fmt::LowerExp for wide::i64x2_::i64x2>::fmt
                0x00000000000dde28                wide::<impl core::fmt::LowerExp for wide::i64x4_::i64x4>::fmt
                0x00000000000de048                wide::<impl core::fmt::LowerExp for wide::u8x16_::u8x16>::fmt
                0x00000000000de75c                wide::<impl core::fmt::LowerExp for wide::u16x8_::u16x8>::fmt
                0x00000000000deb20                wide::<impl core::fmt::LowerExp for wide::u16x16_::u16x16>::fmt
                0x00000000000df224                wide::<impl core::fmt::LowerExp for wide::u32x8_::u32x8>::fmt
                0x00000000000df5e4                wide::<impl core::fmt::LowerExp for wide::u32x4_::u32x4>::fmt
                0x00000000000df804                wide::<impl core::fmt::LowerHex for wide::u32x8_::u32x8>::fmt
                0x00000000000df804                wide::<impl core::fmt::LowerHex for wide::f32x8_::f32x8>::fmt
                0x00000000000dfbc4                wide::<impl core::fmt::LowerHex for wide::f32x4_::f32x4>::fmt
                0x00000000000dfbc4                wide::<impl core::fmt::LowerHex for wide::u32x4_::u32x4>::fmt
                0x00000000000dfde4                wide::<impl core::fmt::LowerHex for wide::f64x4_::f64x4>::fmt
                0x00000000000dfde4                wide::<impl core::fmt::LowerHex for wide::u64x4_::u64x4>::fmt
                0x00000000000e0004                wide::<impl core::fmt::LowerHex for wide::f64x2_::f64x2>::fmt
                0x00000000000e0004                wide::<impl core::fmt::LowerHex for wide::u64x2_::u64x2>::fmt
                0x00000000000e0154                wide::<impl core::fmt::LowerHex for wide::i8x32_::i8x32>::fmt
                0x00000000000e0308                wide::<impl core::fmt::LowerHex for wide::i8x16_::i8x16>::fmt
                0x00000000000e0a1c                wide::<impl core::fmt::LowerHex for wide::i16x8_::i16x8>::fmt
                0x00000000000e0de0                wide::<impl core::fmt::LowerHex for wide::i16x16_::i16x16>::fmt
                0x00000000000e14e4                wide::<impl core::fmt::LowerHex for wide::i32x8_::i32x8>::fmt
                0x00000000000e18a4                wide::<impl core::fmt::LowerHex for wide::i32x4_::i32x4>::fmt
                0x00000000000e1ac4                wide::<impl core::fmt::LowerHex for wide::i64x2_::i64x2>::fmt
                0x00000000000e1c14                wide::<impl core::fmt::LowerHex for wide::i64x4_::i64x4>::fmt
                0x00000000000e1e34                wide::<impl core::fmt::LowerHex for wide::u8x16_::u8x16>::fmt
                0x00000000000e2548                wide::<impl core::fmt::LowerHex for wide::u16x8_::u16x8>::fmt
                0x00000000000e290c                wide::<impl core::fmt::LowerHex for wide::u16x16_::u16x16>::fmt
                0x00000000000e3010                wide::<impl core::fmt::Octal for wide::u32x8_::u32x8>::fmt
                0x00000000000e3010                wide::<impl core::fmt::Octal for wide::f32x8_::f32x8>::fmt
                0x00000000000e33d0                wide::<impl core::fmt::Octal for wide::u32x4_::u32x4>::fmt
                0x00000000000e33d0                wide::<impl core::fmt::Octal for wide::f32x4_::f32x4>::fmt
                0x00000000000e35f0                wide::<impl core::fmt::Octal for wide::f64x4_::f64x4>::fmt
                0x00000000000e35f0                wide::<impl core::fmt::Octal for wide::u64x4_::u64x4>::fmt
                0x00000000000e3810                wide::<impl core::fmt::Octal for wide::f64x2_::f64x2>::fmt
                0x00000000000e3810                wide::<impl core::fmt::Octal for wide::u64x2_::u64x2>::fmt
                0x00000000000e3960                wide::<impl core::fmt::Octal for wide::i8x32_::i8x32>::fmt
                0x00000000000e3b14                wide::<impl core::fmt::Octal for wide::i8x16_::i8x16>::fmt
                0x00000000000e4228                wide::<impl core::fmt::Octal for wide::i16x8_::i16x8>::fmt
                0x00000000000e45ec                wide::<impl core::fmt::Octal for wide::i16x16_::i16x16>::fmt
                0x00000000000e4cf0                wide::<impl core::fmt::Octal for wide::i32x8_::i32x8>::fmt
                0x00000000000e50b0                wide::<impl core::fmt::Octal for wide::i32x4_::i32x4>::fmt
                0x00000000000e52d0                wide::<impl core::fmt::Octal for wide::i64x2_::i64x2>::fmt
                0x00000000000e5420                wide::<impl core::fmt::Octal for wide::i64x4_::i64x4>::fmt
                0x00000000000e5640                wide::<impl core::fmt::Octal for wide::u8x16_::u8x16>::fmt
                0x00000000000e5d54                wide::<impl core::fmt::Octal for wide::u16x8_::u16x8>::fmt
                0x00000000000e6118                wide::<impl core::fmt::Octal for wide::u16x16_::u16x16>::fmt
                0x00000000000e681c                wide::<impl core::fmt::UpperExp for wide::f32x8_::f32x8>::fmt
                0x00000000000e681c                wide::<impl core::fmt::UpperExp for wide::u32x8_::u32x8>::fmt
                0x00000000000e6bdc                wide::<impl core::fmt::UpperExp for wide::f32x4_::f32x4>::fmt
                0x00000000000e6bdc                wide::<impl core::fmt::UpperExp for wide::u32x4_::u32x4>::fmt
                0x00000000000e6dfc                wide::<impl core::fmt::UpperExp for wide::f64x4_::f64x4>::fmt
                0x00000000000e6dfc                wide::<impl core::fmt::UpperExp for wide::u64x4_::u64x4>::fmt
                0x00000000000e701c                wide::<impl core::fmt::UpperExp for wide::u64x2_::u64x2>::fmt
                0x00000000000e701c                wide::<impl core::fmt::UpperExp for wide::f64x2_::f64x2>::fmt
                0x00000000000e716c                wide::<impl core::fmt::UpperExp for wide::i8x32_::i8x32>::fmt
                0x00000000000e7320                wide::<impl core::fmt::UpperExp for wide::i8x16_::i8x16>::fmt
                0x00000000000e7a34                wide::<impl core::fmt::UpperExp for wide::i16x8_::i16x8>::fmt
                0x00000000000e7df8                wide::<impl core::fmt::UpperExp for wide::i16x16_::i16x16>::fmt
                0x00000000000e84fc                wide::<impl core::fmt::UpperExp for wide::i32x8_::i32x8>::fmt
                0x00000000000e88bc                wide::<impl core::fmt::UpperExp for wide::i32x4_::i32x4>::fmt
                0x00000000000e8adc                wide::<impl core::fmt::UpperExp for wide::i64x2_::i64x2>::fmt
                0x00000000000e8c2c                wide::<impl core::fmt::UpperExp for wide::i64x4_::i64x4>::fmt
                0x00000000000e8e4c                wide::<impl core::fmt::UpperExp for wide::u8x16_::u8x16>::fmt
                0x00000000000e9560                wide::<impl core::fmt::UpperExp for wide::u16x8_::u16x8>::fmt
                0x00000000000e9924                wide::<impl core::fmt::UpperExp for wide::u16x16_::u16x16>::fmt
                0x00000000000ea028                wide::<impl core::fmt::UpperHex for wide::f32x8_::f32x8>::fmt
                0x00000000000ea028                wide::<impl core::fmt::UpperHex for wide::u32x8_::u32x8>::fmt
                0x00000000000ea3e8                wide::<impl core::fmt::UpperHex for wide::u32x4_::u32x4>::fmt
                0x00000000000ea3e8                wide::<impl core::fmt::UpperHex for wide::f32x4_::f32x4>::fmt
                0x00000000000ea608                wide::<impl core::fmt::UpperHex for wide::u64x4_::u64x4>::fmt
                0x00000000000ea608                wide::<impl core::fmt::UpperHex for wide::f64x4_::f64x4>::fmt
                0x00000000000ea828                wide::<impl core::fmt::UpperHex for wide::f64x2_::f64x2>::fmt
                0x00000000000ea828                wide::<impl core::fmt::UpperHex for wide::u64x2_::u64x2>::fmt
                0x00000000000ea978                wide::<impl core::fmt::UpperHex for wide::i8x32_::i8x32>::fmt
                0x00000000000eab2c                wide::<impl core::fmt::UpperHex for wide::i8x16_::i8x16>::fmt
                0x00000000000eb240                wide::<impl core::fmt::UpperHex for wide::i16x8_::i16x8>::fmt
                0x00000000000eb604                wide::<impl core::fmt::UpperHex for wide::i16x16_::i16x16>::fmt
                0x00000000000ebd08                wide::<impl core::fmt::UpperHex for wide::i32x8_::i32x8>::fmt
                0x00000000000ec0c8                wide::<impl core::fmt::UpperHex for wide::i32x4_::i32x4>::fmt
                0x00000000000ec2e8                wide::<impl core::fmt::UpperHex for wide::i64x2_::i64x2>::fmt
                0x00000000000ec438                wide::<impl core::fmt::UpperHex for wide::i64x4_::i64x4>::fmt
                0x00000000000ec658                wide::<impl core::fmt::UpperHex for wide::u8x16_::u8x16>::fmt
                0x00000000000ecd6c                wide::<impl core::fmt::UpperHex for wide::u16x8_::u16x8>::fmt
                0x00000000000ed130                wide::<impl core::fmt::UpperHex for wide::u16x16_::u16x16>::fmt
 .text          0x00000000000ed834     0x2990 /tmp/tmp.02UVREPIR3.o
                0x00000000000ed9cc                <serde::de::value::Error as core::fmt::Debug>::fmt
                0x00000000000eda40                <serde::de::value::ExpectedInSeq as serde::de::Expected>::fmt
                0x00000000000edb1c                <serde::de::value::ExpectedInMap as serde::de::Expected>::fmt
                0x00000000000edbf8                <serde::de::ignored_any::IgnoredAny as serde::de::Visitor>::expecting
                0x00000000000edc34                <serde::de::impls::UnitVisitor as serde::de::Visitor>::expecting
                0x00000000000edc70                <serde::de::impls::BoolVisitor as serde::de::Visitor>::expecting
                0x00000000000edcac                <serde::de::impls::CharVisitor as serde::de::Visitor>::expecting
                0x00000000000edce8                <serde::de::impls::StringVisitor as serde::de::Visitor>::expecting
                0x00000000000edce8                <serde::__private::de::borrow_cow_str::CowStrVisitor as serde::de::Visitor>::expecting
                0x00000000000edd24                <serde::de::impls::StringInPlaceVisitor as serde::de::Visitor>::expecting
                0x00000000000edd60                <serde::de::impls::StrVisitor as serde::de::Visitor>::expecting
                0x00000000000edd9c                <serde::de::impls::BytesVisitor as serde::de::Visitor>::expecting
                0x00000000000eddd8                <serde::de::impls::CStringVisitor as serde::de::Visitor>::expecting
                0x00000000000ede14                <serde::de::impls::PathVisitor as serde::de::Visitor>::expecting
                0x00000000000ede50                <serde::de::impls::PathBufVisitor as serde::de::Visitor>::expecting
                0x00000000000ede8c                <serde::de::impls::OsStringVisitor as serde::de::Visitor>::expecting
                0x00000000000edec8                <<serde::de::impls::<impl serde::de::Deserialize for core::time::Duration>::deserialize::Field as serde::de::Deserialize>::deserialize::FieldVisitor as serde::de::Visitor>::expecting
                0x00000000000edf04                <serde::de::impls::<impl serde::de::Deserialize for core::time::Duration>::deserialize::DurationVisitor as serde::de::Visitor>::expecting
                0x00000000000edf40                <<serde::de::impls::<impl serde::de::Deserialize for std::time::SystemTime>::deserialize::Field as serde::de::Deserialize>::deserialize::FieldVisitor as serde::de::Visitor>::expecting
                0x00000000000edf7c                <serde::de::impls::<impl serde::de::Deserialize for std::time::SystemTime>::deserialize::DurationVisitor as serde::de::Visitor>::expecting
                0x00000000000edfb8                <<serde::de::impls::range::Field as serde::de::Deserialize>::deserialize::FieldVisitor as serde::de::Visitor>::expecting
                0x00000000000edff4                <<serde::de::impls::range_from::Field as serde::de::Deserialize>::deserialize::FieldVisitor as serde::de::Visitor>::expecting
                0x00000000000ee030                <<serde::de::impls::range_to::Field as serde::de::Deserialize>::deserialize::FieldVisitor as serde::de::Visitor>::expecting
                0x00000000000ee06c                <<serde::de::impls::<impl serde::de::Deserialize for core::ops::range::Bound<T>>::deserialize::Field as serde::de::Deserialize>::deserialize::FieldVisitor as serde::de::Visitor>::expecting
                0x00000000000ee0a8                <<serde::de::impls::<impl serde::de::Deserialize for core::result::Result<T,E>>::deserialize::Field as serde::de::Deserialize>::deserialize::FieldVisitor as serde::de::Visitor>::expecting
                0x00000000000ee0e4                <serde::de::Unexpected as core::fmt::Display>::fmt
                0x00000000000ee508                <&str as serde::de::Expected>::fmt
                0x00000000000ee508                <serde::de::value::Error as core::fmt::Display>::fmt
                0x00000000000ee548                <dyn serde::de::Expected as core::fmt::Display>::fmt
                0x00000000000ee590                <serde::de::OneOf as core::fmt::Display>::fmt
                0x00000000000ee8b0                <serde::de::WithDecimalPoint as core::fmt::Display>::fmt
                0x00000000000eea3c                <<serde::de::WithDecimalPoint as core::fmt::Display>::fmt::LookForDecimalPoint as core::fmt::Write>::write_str
                0x00000000000eeb8c                <<serde::de::WithDecimalPoint as core::fmt::Display>::fmt::LookForDecimalPoint as core::fmt::Write>::write_char
                0x00000000000eebe8                serde::ser::fmt::<impl serde::ser::Serializer for &mut core::fmt::Formatter>::serialize_unit_variant
                0x00000000000eec30                serde::format::Buf::as_str
                0x00000000000eecb4                <serde::format::Buf as core::fmt::Write>::write_str
                0x00000000000eeda8                <serde::__private::de::borrow_cow_bytes::CowBytesVisitor as serde::de::Visitor>::expecting
                0x00000000000eede4                serde::__private::de::content::Content::as_str
                0x00000000000eeee0                <serde::__private::de::content::ContentVisitor as serde::de::Visitor>::expecting
                0x00000000000eef1c                <serde::__private::de::content::TagOrContentVisitor as serde::de::Visitor>::expecting
                0x00000000000eef94                <serde::__private::de::content::TagOrContentFieldVisitor as serde::de::Visitor>::expecting
                0x00000000000ef010                <serde::__private::de::content::TagContentOtherFieldVisitor as serde::de::Visitor>::expecting
                0x00000000000ef090                <serde::__private::de::content::UntaggedUnitVisitor as serde::de::Visitor>::expecting
                0x00000000000ef090                <serde::__private::de::content::InternallyTaggedUnitVisitor as serde::de::Visitor>::expecting
                0x00000000000ef10c                serde::__private::de::flat_map_take_entry
                0x00000000000ef380                <serde::__private::ser::Unsupported as core::fmt::Display>::fmt
                0x00000000000ef578                <serde::__private::doc::Error as core::error::Error>::description
                0x00000000000ef5b0                <serde::__private::doc::Error as core::fmt::Display>::fmt
                0x00000000000ef5e8                serde::__private::string::from_utf8_lossy
                0x00000000000ef630                <serde::de::impls::<impl serde::de::Deserialize for core::num::nonzero::NonZero<i8>>::deserialize::NonZeroVisitor as serde::de::Visitor>::expecting
                0x00000000000ef66c                <serde::de::impls::<impl serde::de::Deserialize for core::num::saturating::Saturating<u128>>::deserialize::SaturatingVisitor as serde::de::Visitor>::expecting
                0x00000000000ef66c                <serde::de::impls::<impl serde::de::Deserialize for core::num::saturating::Saturating<i32>>::deserialize::SaturatingVisitor as serde::de::Visitor>::expecting
                0x00000000000ef66c                <serde::de::impls::<impl serde::de::Deserialize for core::num::saturating::Saturating<u16>>::deserialize::SaturatingVisitor as serde::de::Visitor>::expecting
                0x00000000000ef66c                <serde::de::impls::<impl serde::de::Deserialize for core::num::saturating::Saturating<u64>>::deserialize::SaturatingVisitor as serde::de::Visitor>::expecting
                0x00000000000ef66c                <serde::de::impls::<impl serde::de::Deserialize for core::num::saturating::Saturating<u32>>::deserialize::SaturatingVisitor as serde::de::Visitor>::expecting
                0x00000000000ef66c                <serde::de::impls::<impl serde::de::Deserialize for core::num::saturating::Saturating<isize>>::deserialize::SaturatingVisitor as serde::de::Visitor>::expecting
                0x00000000000ef66c                <serde::de::impls::<impl serde::de::Deserialize for core::num::saturating::Saturating<i16>>::deserialize::SaturatingVisitor as serde::de::Visitor>::expecting
                0x00000000000ef66c                <serde::de::impls::<impl serde::de::Deserialize for core::num::saturating::Saturating<i64>>::deserialize::SaturatingVisitor as serde::de::Visitor>::expecting
                0x00000000000ef66c                <serde::de::impls::<impl serde::de::Deserialize for core::num::saturating::Saturating<usize>>::deserialize::SaturatingVisitor as serde::de::Visitor>::expecting
                0x00000000000ef66c                <serde::de::impls::<impl serde::de::Deserialize for core::num::saturating::Saturating<i128>>::deserialize::SaturatingVisitor as serde::de::Visitor>::expecting
                0x00000000000ef66c                <serde::de::impls::<impl serde::de::Deserialize for core::num::saturating::Saturating<u8>>::deserialize::SaturatingVisitor as serde::de::Visitor>::expecting
                0x00000000000ef66c                <serde::de::impls::<impl serde::de::Deserialize for core::num::saturating::Saturating<i8>>::deserialize::SaturatingVisitor as serde::de::Visitor>::expecting
                0x00000000000ef6a8                <serde::de::impls::<impl serde::de::Deserialize for i8>::deserialize::PrimitiveVisitor as serde::de::Visitor>::expecting
                0x00000000000ef6e4                <serde::de::impls::<impl serde::de::Deserialize for core::num::nonzero::NonZero<i16>>::deserialize::NonZeroVisitor as serde::de::Visitor>::expecting
                0x00000000000ef720                <serde::de::impls::<impl serde::de::Deserialize for i16>::deserialize::PrimitiveVisitor as serde::de::Visitor>::expecting
                0x00000000000ef75c                <serde::de::impls::<impl serde::de::Deserialize for core::num::nonzero::NonZero<i32>>::deserialize::NonZeroVisitor as serde::de::Visitor>::expecting
                0x00000000000ef798                <serde::de::impls::<impl serde::de::Deserialize for i32>::deserialize::PrimitiveVisitor as serde::de::Visitor>::expecting
                0x00000000000ef7d4                <serde::de::impls::<impl serde::de::Deserialize for core::num::nonzero::NonZero<i64>>::deserialize::NonZeroVisitor as serde::de::Visitor>::expecting
                0x00000000000ef810                <serde::de::impls::<impl serde::de::Deserialize for i64>::deserialize::PrimitiveVisitor as serde::de::Visitor>::expecting
                0x00000000000ef84c                <serde::de::impls::<impl serde::de::Deserialize for core::num::nonzero::NonZero<isize>>::deserialize::NonZeroVisitor as serde::de::Visitor>::expecting
                0x00000000000ef888                <serde::de::impls::<impl serde::de::Deserialize for isize>::deserialize::PrimitiveVisitor as serde::de::Visitor>::expecting
                0x00000000000ef8c4                <serde::de::impls::<impl serde::de::Deserialize for core::num::nonzero::NonZero<u8>>::deserialize::NonZeroVisitor as serde::de::Visitor>::expecting
                0x00000000000ef900                <serde::de::impls::<impl serde::de::Deserialize for u8>::deserialize::PrimitiveVisitor as serde::de::Visitor>::expecting
                0x00000000000ef93c                <serde::de::impls::<impl serde::de::Deserialize for core::num::nonzero::NonZero<u16>>::deserialize::NonZeroVisitor as serde::de::Visitor>::expecting
                0x00000000000ef978                <serde::de::impls::<impl serde::de::Deserialize for u16>::deserialize::PrimitiveVisitor as serde::de::Visitor>::expecting
                0x00000000000ef9b4                <serde::de::impls::<impl serde::de::Deserialize for core::num::nonzero::NonZero<u32>>::deserialize::NonZeroVisitor as serde::de::Visitor>::expecting
                0x00000000000ef9f0                <serde::de::impls::<impl serde::de::Deserialize for u32>::deserialize::PrimitiveVisitor as serde::de::Visitor>::expecting
                0x00000000000efa2c                <serde::de::impls::<impl serde::de::Deserialize for core::num::nonzero::NonZero<u64>>::deserialize::NonZeroVisitor as serde::de::Visitor>::expecting
                0x00000000000efa68                <serde::de::impls::<impl serde::de::Deserialize for u64>::deserialize::PrimitiveVisitor as serde::de::Visitor>::expecting
                0x00000000000efaa4                <serde::de::impls::<impl serde::de::Deserialize for core::num::nonzero::NonZero<usize>>::deserialize::NonZeroVisitor as serde::de::Visitor>::expecting
                0x00000000000efae0                <serde::de::impls::<impl serde::de::Deserialize for usize>::deserialize::PrimitiveVisitor as serde::de::Visitor>::expecting
                0x00000000000efb1c                <serde::de::impls::<impl serde::de::Deserialize for f32>::deserialize::PrimitiveVisitor as serde::de::Visitor>::expecting
                0x00000000000efb58                <serde::de::impls::<impl serde::de::Deserialize for f64>::deserialize::PrimitiveVisitor as serde::de::Visitor>::expecting
                0x00000000000efb94                <serde::de::impls::<impl serde::de::Deserialize for core::num::nonzero::NonZero<i128>>::deserialize::NonZeroVisitor as serde::de::Visitor>::expecting
                0x00000000000efbd0                <serde::de::impls::<impl serde::de::Deserialize for i128>::deserialize::PrimitiveVisitor as serde::de::Visitor>::expecting
                0x00000000000efc0c                <serde::de::impls::<impl serde::de::Deserialize for core::num::nonzero::NonZero<u128>>::deserialize::NonZeroVisitor as serde::de::Visitor>::expecting
                0x00000000000efc48                <serde::de::impls::<impl serde::de::Deserialize for u128>::deserialize::PrimitiveVisitor as serde::de::Visitor>::expecting
                0x00000000000efc84                <serde::de::impls::<impl serde::de::Deserialize for core::net::ip_addr::IpAddr>::deserialize::EnumVisitor as serde::de::Visitor>::expecting
                0x00000000000efcc0                <<serde::de::impls::<impl serde::de::Deserialize for core::net::socket_addr::SocketAddr>::deserialize::SocketAddrKind as serde::de::Deserialize>::deserialize::KindVisitor as serde::de::Visitor>::expecting
                0x00000000000efcc0                <<serde::de::impls::<impl serde::de::Deserialize for core::net::ip_addr::IpAddr>::deserialize::IpAddrKind as serde::de::Deserialize>::deserialize::KindVisitor as serde::de::Visitor>::expecting
                0x00000000000efcfc                <serde::de::impls::<impl serde::de::Deserialize for core::net::socket_addr::SocketAddr>::deserialize::EnumVisitor as serde::de::Visitor>::expecting
                0x00000000000efd38                <<serde::de::impls::OsStringKind as serde::de::Deserialize>::deserialize::KindVisitor as serde::de::Visitor>::expecting
                0x00000000000efd74                serde::ser::fmt::<impl serde::ser::Serializer for &mut core::fmt::Formatter>::serialize_bool
                0x00000000000efdbc                serde::ser::fmt::<impl serde::ser::Serializer for &mut core::fmt::Formatter>::serialize_i8
                0x00000000000efe04                serde::ser::fmt::<impl serde::ser::Serializer for &mut core::fmt::Formatter>::serialize_i16
                0x00000000000efe4c                serde::ser::fmt::<impl serde::ser::Serializer for &mut core::fmt::Formatter>::serialize_i32
                0x00000000000efe94                serde::ser::fmt::<impl serde::ser::Serializer for &mut core::fmt::Formatter>::serialize_i64
                0x00000000000efedc                serde::ser::fmt::<impl serde::ser::Serializer for &mut core::fmt::Formatter>::serialize_i128
                0x00000000000eff30                serde::ser::fmt::<impl serde::ser::Serializer for &mut core::fmt::Formatter>::serialize_u8
                0x00000000000eff78                serde::ser::fmt::<impl serde::ser::Serializer for &mut core::fmt::Formatter>::serialize_u16
                0x00000000000effc0                serde::ser::fmt::<impl serde::ser::Serializer for &mut core::fmt::Formatter>::serialize_u32
                0x00000000000f0008                serde::ser::fmt::<impl serde::ser::Serializer for &mut core::fmt::Formatter>::serialize_u64
                0x00000000000f0050                serde::ser::fmt::<impl serde::ser::Serializer for &mut core::fmt::Formatter>::serialize_u128
                0x00000000000f00a4                serde::ser::fmt::<impl serde::ser::Serializer for &mut core::fmt::Formatter>::serialize_f32
                0x00000000000f00ec                serde::ser::fmt::<impl serde::ser::Serializer for &mut core::fmt::Formatter>::serialize_f64
                0x00000000000f0134                serde::ser::fmt::<impl serde::ser::Serializer for &mut core::fmt::Formatter>::serialize_char
                0x00000000000f017c                serde::ser::fmt::<impl serde::ser::Serializer for &mut core::fmt::Formatter>::serialize_unit_struct
                0x00000000000f017c                serde::ser::fmt::<impl serde::ser::Serializer for &mut core::fmt::Formatter>::serialize_str
 .text          0x00000000000f01c4    0x155c8 /tmp/tmp.jif7ZMerv3.o
                0x00000000000f0940                compiler_builtins::float::conv::int_to_float::u32_to_f128_bits
                0x00000000000f09d4                compiler_builtins::float::conv::int_to_float::u64_to_f128_bits
                0x00000000000f0a78                compiler_builtins::float::conv::int_to_float::u128_to_f128_bits
                0x00000000000f0b5c                <compiler_builtins::int::big::u256 as core::ops::bit::Shr<u32>>::shr
                0x00000000000f0ec0                compiler_builtins::int::big::<impl compiler_builtins::int::HInt for i128>::zero_widen_mul
                0x00000000000f0ec0                compiler_builtins::int::big::<impl compiler_builtins::int::HInt for u128>::zero_widen_mul
                0x00000000000f0ec0                compiler_builtins::int::big::<impl compiler_builtins::int::HInt for u128>::widen_mul
                0x00000000000f1008                compiler_builtins::int::big::<impl compiler_builtins::int::HInt for i128>::widen_mul
                0x00000000000f102c                compiler_builtins::int::big::<impl compiler_builtins::int::HInt for u128>::widen_hi
                0x00000000000f102c                compiler_builtins::int::big::<impl compiler_builtins::int::HInt for i128>::widen_hi
                0x00000000000f1050                <compiler_builtins::int::big::i256 as compiler_builtins::int::DInt>::lo
                0x00000000000f1050                <compiler_builtins::int::big::u256 as compiler_builtins::int::DInt>::lo
                0x00000000000f1088                <compiler_builtins::int::big::i256 as compiler_builtins::int::DInt>::hi
                0x00000000000f1088                <compiler_builtins::int::big::u256 as compiler_builtins::int::DInt>::hi
                0x00000000000f10c0                compiler_builtins::float::add::__addsf3
                0x00000000000f1700                __addsf3
                0x00000000000f1740                compiler_builtins::float::add::__adddf3
                0x00000000000f1d84                __adddf3
                0x00000000000f1dc4                __addtf3
                0x00000000000f1dfc                compiler_builtins::float::cmp::__gtsf2
                0x00000000000f1dfc                compiler_builtins::float::cmp::__gesf2
                0x00000000000f1f68                __gesf2
                0x00000000000f1f68                __gtsf2
                0x00000000000f20d4                compiler_builtins::float::cmp::__unordsf2
                0x00000000000f212c                __unordsf2
                0x00000000000f2184                compiler_builtins::float::cmp::__lesf2
                0x00000000000f2184                compiler_builtins::float::cmp::__ltsf2
                0x00000000000f2184                compiler_builtins::float::cmp::__eqsf2
                0x00000000000f2184                compiler_builtins::float::cmp::__nesf2
                0x00000000000f22f0                __lesf2
                0x00000000000f22f0                __ltsf2
                0x00000000000f22f0                __eqsf2
                0x00000000000f22f0                __nesf2
                0x00000000000f245c                compiler_builtins::float::cmp::__gedf2
                0x00000000000f245c                compiler_builtins::float::cmp::__gtdf2
                0x00000000000f25c8                __gtdf2
                0x00000000000f25c8                __gedf2
                0x00000000000f2734                compiler_builtins::float::cmp::__unorddf2
                0x00000000000f278c                __unorddf2
                0x00000000000f27e4                compiler_builtins::float::cmp::__nedf2
                0x00000000000f27e4                compiler_builtins::float::cmp::__ledf2
                0x00000000000f27e4                compiler_builtins::float::cmp::__eqdf2
                0x00000000000f27e4                compiler_builtins::float::cmp::__ltdf2
                0x00000000000f2950                __ltdf2
                0x00000000000f2950                __ledf2
                0x00000000000f2950                __nedf2
                0x00000000000f2950                __eqdf2
                0x00000000000f2abc                __gttf2
                0x00000000000f2abc                __getf2
                0x00000000000f2c50                __unordtf2
                0x00000000000f2cf8                __letf2
                0x00000000000f2cf8                __lttf2
                0x00000000000f2cf8                __netf2
                0x00000000000f2cf8                __eqtf2
                0x00000000000f2e8c                compiler_builtins::float::conv::__floatunsisf
                0x00000000000f2f24                __floatunsisf
                0x00000000000f2fbc                compiler_builtins::float::conv::__floatunsidf
                0x00000000000f304c                __floatunsidf
                0x00000000000f30dc                compiler_builtins::float::conv::__floatundisf
                0x00000000000f3150                __floatundisf
                0x00000000000f31c4                compiler_builtins::float::conv::__floatundidf
                0x00000000000f325c                __floatundidf
                0x00000000000f32f4                compiler_builtins::float::conv::__floatuntisf
                0x00000000000f33b8                __floatuntisf
                0x00000000000f347c                compiler_builtins::float::conv::__floatuntidf
                0x00000000000f3534                __floatuntidf
                0x00000000000f35ec                __floatunsitf
                0x00000000000f3688                __floatunditf
                0x00000000000f3738                __floatuntitf
                0x00000000000f382c                compiler_builtins::float::conv::__floatsisf
                0x00000000000f38fc                __floatsisf
                0x00000000000f39cc                compiler_builtins::float::conv::__floatsidf
                0x00000000000f3a90                __floatsidf
                0x00000000000f3b54                compiler_builtins::float::conv::__floatdisf
                0x00000000000f3bec                __floatdisf
                0x00000000000f3c84                compiler_builtins::float::conv::__floatdidf
                0x00000000000f3d54                __floatdidf
                0x00000000000f3e24                compiler_builtins::float::conv::__floattisf
                0x00000000000f3f04                __floattisf
                0x00000000000f3fe4                compiler_builtins::float::conv::__floattidf
                0x00000000000f40b4                __floattidf
                0x00000000000f4184                __floatsitf
                0x00000000000f425c                __floatditf
                0x00000000000f4348                __floattitf
                0x00000000000f445c                compiler_builtins::float::conv::__fixunssfsi
                0x00000000000f4554                __fixunssfsi
                0x00000000000f464c                compiler_builtins::float::conv::__fixunssfdi
                0x00000000000f4744                __fixunssfdi
                0x00000000000f483c                compiler_builtins::float::conv::__fixunssfti
                0x00000000000f4950                __fixunssfti
                0x00000000000f4a64                compiler_builtins::float::conv::__fixunsdfsi
                0x00000000000f4b5c                __fixunsdfsi
                0x00000000000f4c54                compiler_builtins::float::conv::__fixunsdfdi
                0x00000000000f4d4c                __fixunsdfdi
                0x00000000000f4e44                compiler_builtins::float::conv::__fixunsdfti
                0x00000000000f4f5c                __fixunsdfti
                0x00000000000f5074                __fixunstfsi
                0x00000000000f5180                __fixunstfdi
                0x00000000000f5288                __fixunstfti
                0x00000000000f53c0                compiler_builtins::float::conv::__fixsfsi
                0x00000000000f54f4                __fixsfsi
                0x00000000000f5628                compiler_builtins::float::conv::__fixsfdi
                0x00000000000f575c                __fixsfdi
                0x00000000000f5890                compiler_builtins::float::conv::__fixsfti
                0x00000000000f59f0                __fixsfti
                0x00000000000f5b50                compiler_builtins::float::conv::__fixdfsi
                0x00000000000f5c88                __fixdfsi
                0x00000000000f5dc0                compiler_builtins::float::conv::__fixdfdi
                0x00000000000f5ef4                __fixdfdi
                0x00000000000f6028                compiler_builtins::float::conv::__fixdfti
                0x00000000000f618c                __fixdfti
                0x00000000000f62f0                __fixtfsi
                0x00000000000f6434                __fixtfdi
                0x00000000000f6574                __fixtfti
                0x00000000000f66f0                compiler_builtins::float::div::__divsf3
                0x00000000000f6c24                __divsf3
                0x00000000000f6c64                compiler_builtins::float::div::__divdf3
                0x00000000000f71c8                __divdf3
                0x00000000000f7208                __divtf3
                0x00000000000f7a2c                compiler_builtins::float::extend::__extendsfdf2
                0x00000000000f7bb4                __extendsfdf2
                0x00000000000f7d3c                __gnu_h2f_ieee
                0x00000000000f7d3c                __extendhfsf2
                0x00000000000f7ec0                __extendhftf2
                0x00000000000f804c                __extendsftf2
                0x00000000000f81d4                __extenddftf2
                0x00000000000f835c                compiler_builtins::float::mul::__mulsf3
                0x00000000000f8898                __mulsf3
                0x00000000000f88d8                compiler_builtins::float::mul::__muldf3
                0x00000000000f8e10                __muldf3
                0x00000000000f8e50                __multf3
                0x00000000000f95e4                compiler_builtins::float::pow::__powisf2
                0x00000000000f96d4                __powisf2
                0x00000000000f97c4                compiler_builtins::float::pow::__powidf2
                0x00000000000f98b4                __powidf2
                0x00000000000f99a4                __powitf2
                0x00000000000f9ad8                compiler_builtins::float::sub::__subsf3
                0x00000000000f9b20                __subsf3
                0x00000000000f9b68                compiler_builtins::float::sub::__subdf3
                0x00000000000f9bb0                __subdf3
                0x00000000000f9bf8                __subtf3
                0x00000000000f9c4c                compiler_builtins::float::trunc::__truncdfsf2
                0x00000000000f9f5c                __truncdfsf2
                0x00000000000fa26c                __gnu_f2h_ieee
                0x00000000000fa26c                __truncsfhf2
                0x00000000000fa534                __truncdfhf2
                0x00000000000fa804                __trunctfhf2
                0x00000000000fab44                __trunctfsf2
                0x00000000000faebc                __trunctfdf2
                0x00000000000fb21c                <f16 as compiler_builtins::float::Float>::normalize
                0x00000000000fb278                <f32 as compiler_builtins::float::Float>::normalize
                0x00000000000fb2c0                <f64 as compiler_builtins::float::Float>::normalize
                0x00000000000fb308                <f128 as compiler_builtins::float::Float>::normalize
                0x00000000000fba3c                compiler_builtins::int::addsub::__rust_u128_add
                0x00000000000fba3c                compiler_builtins::int::addsub::__rust_i128_add
                0x00000000000fba94                __rust_u128_add
                0x00000000000fba94                __rust_i128_add
                0x00000000000fbaec                compiler_builtins::int::addsub::__rust_i128_addo
                0x00000000000fbb64                __rust_i128_addo
                0x00000000000fbbdc                compiler_builtins::int::addsub::__rust_u128_addo
                0x00000000000fbc48                __rust_u128_addo
                0x00000000000fbcb4                compiler_builtins::int::addsub::__rust_u128_sub
                0x00000000000fbcb4                compiler_builtins::int::addsub::__rust_i128_sub
                0x00000000000fbd0c                __rust_u128_sub
                0x00000000000fbd0c                __rust_i128_sub
                0x00000000000fbd64                compiler_builtins::int::addsub::__rust_i128_subo
                0x00000000000fbddc                __rust_i128_subo
                0x00000000000fbe54                compiler_builtins::int::addsub::__rust_u128_subo
                0x00000000000fbec0                __rust_u128_subo
                0x00000000000fbf2c                <compiler_builtins::int::big::i256 as core::ops::bit::Shl<u32>>::shl
                0x00000000000fbf2c                <compiler_builtins::int::big::u256 as core::ops::bit::Shl<u32>>::shl
                0x00000000000fbf50                compiler_builtins::int::bswap::__bswapsi2
                0x00000000000fbf88                __bswapsi2
                0x00000000000fbfc0                compiler_builtins::int::bswap::__bswapdi2
                0x00000000000fbff8                __bswapdi2
                0x00000000000fc030                compiler_builtins::int::bswap::__bswapti2
                0x00000000000fc078                __bswapti2
                0x00000000000fc0c0                compiler_builtins::int::leading_zeros::__clzsi2
                0x00000000000fc158                __clzsi2
                0x00000000000fc1f0                compiler_builtins::int::leading_zeros::__clzdi2
                0x00000000000fc29c                __clzdi2
                0x00000000000fc348                compiler_builtins::int::leading_zeros::__clzti2
                0x00000000000fc4cc                __clzti2
                0x00000000000fc50c                compiler_builtins::int::mul::__muldi3
                0x00000000000fc58c                __muldi3
                0x00000000000fc60c                compiler_builtins::int::mul::__multi3
                0x00000000000fc69c                __multi3
                0x00000000000fc72c                compiler_builtins::int::mul::__mulosi4
                0x00000000000fc8f8                __mulosi4
                0x00000000000fcac4                compiler_builtins::int::mul::__mulodi4
                0x00000000000fcc90                __mulodi4
                0x00000000000fce5c                __rust_i128_mulo
                0x00000000000fce5c                __muloti4
                0x00000000000fd048                compiler_builtins::int::mul::__muloti4
                0x00000000000fd048                compiler_builtins::int::mul::__rust_i128_mulo
                0x00000000000fd234                compiler_builtins::int::mul::__rust_u128_mulo
                0x00000000000fd364                __rust_u128_mulo
                0x00000000000fd494                compiler_builtins::int::sdiv::__divmodsi4
                0x00000000000fd94c                __divmodsi4
                0x00000000000fd994                compiler_builtins::int::sdiv::__divsi3
                0x00000000000fdbc0                __divsi3
                0x00000000000fddec                compiler_builtins::int::sdiv::__modsi3
                0x00000000000fe1c8                __modsi3
                0x00000000000fe208                compiler_builtins::int::sdiv::__divmoddi4
                0x00000000000fe6c8                __divmoddi4
                0x00000000000fe710                compiler_builtins::int::sdiv::__divdi3
                0x00000000000fe940                __divdi3
                0x00000000000feb70                compiler_builtins::int::sdiv::__moddi3
                0x00000000000fef54                __moddi3
                0x00000000000fef94                compiler_builtins::int::sdiv::__divmodti4
                0x00000000000ff120                __divmodti4
                0x00000000000ff2ac                compiler_builtins::int::sdiv::__divti3
                0x00000000000ff350                __divti3
                0x00000000000ff3f4                compiler_builtins::int::sdiv::__modti3
                0x00000000000ff544                __modti3
                0x00000000000ff694                compiler_builtins::int::shift::__ashlsi3
                0x00000000000ff788                __ashlsi3
                0x00000000000ff87c                compiler_builtins::int::shift::__ashldi3
                0x00000000000ff95c                __ashldi3
                0x00000000000ffa3c                compiler_builtins::int::shift::__ashlti3
                0x00000000000ffb1c                __ashlti3
                0x00000000000ffbfc                compiler_builtins::int::shift::__ashrsi3
                0x00000000000ffcfc                __ashrsi3
                0x00000000000ffdfc                compiler_builtins::int::shift::__ashrdi3
                0x00000000000ffee4                __ashrdi3
                0x00000000000fffcc                compiler_builtins::int::shift::__ashrti3
                0x00000000001000ac                __ashrti3
                0x000000000010018c                compiler_builtins::int::shift::__lshrsi3
                0x0000000000100280                __lshrsi3
                0x0000000000100374                compiler_builtins::int::shift::__lshrdi3
                0x0000000000100454                __lshrdi3
                0x0000000000100534                compiler_builtins::int::shift::__lshrti3
                0x0000000000100614                __lshrti3
                0x00000000001006f4                compiler_builtins::int::trailing_zeros::__ctzsi2
                0x000000000010079c                __ctzsi2
                0x0000000000100844                compiler_builtins::int::trailing_zeros::__ctzdi2
                0x0000000000100900                __ctzdi2
                0x00000000001009bc                compiler_builtins::int::trailing_zeros::__ctzti2
                0x0000000000100b3c                __ctzti2
                0x0000000000100b7c                compiler_builtins::int::udiv::__udivsi3
                0x0000000000100d64                __udivsi3
                0x0000000000100f4c                compiler_builtins::int::udiv::__umodsi3
                0x00000000001010fc                __umodsi3
                0x00000000001012ac                compiler_builtins::int::udiv::__udivmodsi4
                0x00000000001014d0                __udivmodsi4
                0x00000000001016f4                compiler_builtins::int::udiv::__udivdi3
                0x00000000001018e0                __udivdi3
                0x0000000000101acc                compiler_builtins::int::udiv::__umoddi3
                0x0000000000101c80                __umoddi3
                0x0000000000101e34                compiler_builtins::int::udiv::__udivmoddi4
                0x000000000010205c                __udivmoddi4
                0x0000000000102284                compiler_builtins::int::udiv::__udivti3
                0x00000000001022f0                __udivti3
                0x000000000010235c                compiler_builtins::int::udiv::__umodti3
                0x00000000001023c8                __umodti3
                0x0000000000102434                compiler_builtins::int::udiv::__udivmodti4
                0x00000000001024b8                __udivmodti4
                0x000000000010253c                <u8 as compiler_builtins::int::Int>::abs_diff
                0x000000000010258c                <u8 as compiler_builtins::int::Int>::ilog2
                0x0000000000102620                <i8 as compiler_builtins::int::Int>::rotate_left
                0x0000000000102620                <u8 as compiler_builtins::int::Int>::rotate_left
                0x000000000010267c                <i8 as compiler_builtins::int::Int>::leading_zeros
                0x000000000010267c                <u8 as compiler_builtins::int::Int>::leading_zeros
                0x00000000001026bc                <i8 as compiler_builtins::int::Int>::ilog2
                0x0000000000102754                <u16 as compiler_builtins::int::Int>::ilog2
                0x00000000001027e8                <i16 as compiler_builtins::int::Int>::rotate_left
                0x00000000001027e8                <u16 as compiler_builtins::int::Int>::rotate_left
                0x0000000000102844                <i16 as compiler_builtins::int::Int>::leading_zeros
                0x0000000000102844                <u16 as compiler_builtins::int::Int>::leading_zeros
                0x0000000000102884                <i16 as compiler_builtins::int::Int>::ilog2
                0x000000000010291c                <u32 as compiler_builtins::int::Int>::ilog2
                0x00000000001029a0                <i32 as compiler_builtins::int::Int>::rotate_left
                0x00000000001029a0                <u32 as compiler_builtins::int::Int>::rotate_left
                0x00000000001029e8                <i32 as compiler_builtins::int::Int>::leading_zeros
                0x00000000001029e8                <u32 as compiler_builtins::int::Int>::leading_zeros
                0x0000000000102a20                <i32 as compiler_builtins::int::Int>::ilog2
                0x0000000000102aa8                <usize as compiler_builtins::int::Int>::ilog2
                0x0000000000102aa8                <u64 as compiler_builtins::int::Int>::ilog2
                0x0000000000102b2c                <u64 as compiler_builtins::int::Int>::rotate_left
                0x0000000000102b2c                <isize as compiler_builtins::int::Int>::rotate_left
                0x0000000000102b2c                <i64 as compiler_builtins::int::Int>::rotate_left
                0x0000000000102b2c                <usize as compiler_builtins::int::Int>::rotate_left
                0x0000000000102b74                <isize as compiler_builtins::int::Int>::leading_zeros
                0x0000000000102b74                <usize as compiler_builtins::int::Int>::leading_zeros
                0x0000000000102b74                <u64 as compiler_builtins::int::Int>::leading_zeros
                0x0000000000102b74                <i64 as compiler_builtins::int::Int>::leading_zeros
                0x0000000000102bac                <i64 as compiler_builtins::int::Int>::ilog2
                0x0000000000102bac                <isize as compiler_builtins::int::Int>::ilog2
                0x0000000000102c34                <u128 as compiler_builtins::int::Int>::ilog2
                0x0000000000102cd8                <u128 as compiler_builtins::int::Int>::rotate_left
                0x0000000000102cd8                <i128 as compiler_builtins::int::Int>::rotate_left
                0x0000000000102d4c                <i128 as compiler_builtins::int::Int>::leading_zeros
                0x0000000000102d4c                <u128 as compiler_builtins::int::Int>::leading_zeros
                0x0000000000102da0                <i128 as compiler_builtins::int::Int>::ilog2
                0x0000000000102e48                compiler_builtins::mem::memcpy
                0x0000000000103214                compiler_builtins::mem::memmove
                0x0000000000103998                compiler_builtins::mem::memset
                0x0000000000103cd0                compiler_builtins::mem::bcmp
                0x0000000000103cd0                compiler_builtins::mem::memcmp
                0x0000000000103dc4                compiler_builtins::mem::strlen
                0x0000000000103e5c                compiler_builtins::mem::__llvm_memcpy_element_unordered_atomic_1
                0x0000000000103ee8                __llvm_memcpy_element_unordered_atomic_1
                0x0000000000103f74                compiler_builtins::mem::__llvm_memcpy_element_unordered_atomic_2
                0x000000000010402c                __llvm_memcpy_element_unordered_atomic_2
                0x00000000001040e4                compiler_builtins::mem::__llvm_memcpy_element_unordered_atomic_4
                0x000000000010419c                __llvm_memcpy_element_unordered_atomic_4
                0x0000000000104254                compiler_builtins::mem::__llvm_memcpy_element_unordered_atomic_8
                0x000000000010430c                __llvm_memcpy_element_unordered_atomic_8
                0x00000000001043c4                compiler_builtins::mem::__llvm_memcpy_element_unordered_atomic_16
                0x00000000001044a8                __llvm_memcpy_element_unordered_atomic_16
                0x000000000010458c                compiler_builtins::mem::__llvm_memmove_element_unordered_atomic_1
                0x0000000000104670                __llvm_memmove_element_unordered_atomic_1
                0x0000000000104754                compiler_builtins::mem::__llvm_memmove_element_unordered_atomic_2
                0x0000000000104864                __llvm_memmove_element_unordered_atomic_2
                0x0000000000104974                compiler_builtins::mem::__llvm_memmove_element_unordered_atomic_4
                0x0000000000104a84                __llvm_memmove_element_unordered_atomic_4
                0x0000000000104b94                compiler_builtins::mem::__llvm_memmove_element_unordered_atomic_8
                0x0000000000104ca4                __llvm_memmove_element_unordered_atomic_8
                0x0000000000104db4                compiler_builtins::mem::__llvm_memmove_element_unordered_atomic_16
                0x0000000000104f00                __llvm_memmove_element_unordered_atomic_16
                0x000000000010504c                compiler_builtins::mem::__llvm_memset_element_unordered_atomic_1
                0x00000000001050d4                __llvm_memset_element_unordered_atomic_1
                0x000000000010515c                compiler_builtins::mem::__llvm_memset_element_unordered_atomic_2
                0x0000000000105218                __llvm_memset_element_unordered_atomic_2
                0x00000000001052d4                compiler_builtins::mem::__llvm_memset_element_unordered_atomic_4
                0x0000000000105394                __llvm_memset_element_unordered_atomic_4
                0x0000000000105454                compiler_builtins::mem::__llvm_memset_element_unordered_atomic_8
                0x0000000000105514                __llvm_memset_element_unordered_atomic_8
                0x00000000001055d4                compiler_builtins::mem::__llvm_memset_element_unordered_atomic_16
                0x00000000001056b0                __llvm_memset_element_unordered_atomic_16
 .text.__aarch64_cas1_relax
                0x000000000010578c       0x1c /tmp/tmp.jif7ZMerv3.o
                0x000000000010578c                __aarch64_cas1_relax
 .text.__aarch64_cas2_relax
                0x00000000001057a8       0x1c /tmp/tmp.jif7ZMerv3.o
                0x00000000001057a8                __aarch64_cas2_relax
 .text.__aarch64_cas4_relax
                0x00000000001057c4       0x1c /tmp/tmp.jif7ZMerv3.o
                0x00000000001057c4                __aarch64_cas4_relax
 .text.__aarch64_cas8_relax
                0x00000000001057e0       0x1c /tmp/tmp.jif7ZMerv3.o
                0x00000000001057e0                __aarch64_cas8_relax
 .text.__aarch64_cas1_acq
                0x00000000001057fc       0x1c /tmp/tmp.jif7ZMerv3.o
                0x00000000001057fc                __aarch64_cas1_acq
 .text.__aarch64_cas2_acq
                0x0000000000105818       0x1c /tmp/tmp.jif7ZMerv3.o
                0x0000000000105818                __aarch64_cas2_acq
 .text.__aarch64_cas4_acq
                0x0000000000105834       0x1c /tmp/tmp.jif7ZMerv3.o
                0x0000000000105834                __aarch64_cas4_acq
 .text.__aarch64_cas8_acq
                0x0000000000105850       0x1c /tmp/tmp.jif7ZMerv3.o
                0x0000000000105850                __aarch64_cas8_acq
 .text.__aarch64_cas1_rel
                0x000000000010586c       0x1c /tmp/tmp.jif7ZMerv3.o
                0x000000000010586c                __aarch64_cas1_rel
 .text.__aarch64_cas2_rel
                0x0000000000105888       0x1c /tmp/tmp.jif7ZMerv3.o
                0x0000000000105888                __aarch64_cas2_rel
 .text.__aarch64_cas4_rel
                0x00000000001058a4       0x1c /tmp/tmp.jif7ZMerv3.o
                0x00000000001058a4                __aarch64_cas4_rel
 .text.__aarch64_cas8_rel
                0x00000000001058c0       0x1c /tmp/tmp.jif7ZMerv3.o
                0x00000000001058c0                __aarch64_cas8_rel
 .text.__aarch64_cas1_acq_rel
                0x00000000001058dc       0x1c /tmp/tmp.jif7ZMerv3.o
                0x00000000001058dc                __aarch64_cas1_acq_rel
 .text.__aarch64_cas2_acq_rel
                0x00000000001058f8       0x1c /tmp/tmp.jif7ZMerv3.o
                0x00000000001058f8                __aarch64_cas2_acq_rel
 .text.__aarch64_cas4_acq_rel
                0x0000000000105914       0x1c /tmp/tmp.jif7ZMerv3.o
                0x0000000000105914                __aarch64_cas4_acq_rel
 .text.__aarch64_cas8_acq_rel
                0x0000000000105930       0x1c /tmp/tmp.jif7ZMerv3.o
                0x0000000000105930                __aarch64_cas8_acq_rel
 .text.__aarch64_cas16_relax
                0x000000000010594c       0x24 /tmp/tmp.jif7ZMerv3.o
                0x000000000010594c                __aarch64_cas16_relax
 .text.__aarch64_cas16_acq
                0x0000000000105970       0x24 /tmp/tmp.jif7ZMerv3.o
                0x0000000000105970                __aarch64_cas16_acq
 .text.__aarch64_cas16_rel
                0x0000000000105994       0x24 /tmp/tmp.jif7ZMerv3.o
                0x0000000000105994                __aarch64_cas16_rel
 .text.__aarch64_cas16_acq_rel
                0x00000000001059b8       0x24 /tmp/tmp.jif7ZMerv3.o
                0x00000000001059b8                __aarch64_cas16_acq_rel
 .text.__aarch64_swp1_relax
                0x00000000001059dc       0x14 /tmp/tmp.jif7ZMerv3.o
                0x00000000001059dc                __aarch64_swp1_relax
 .text.__aarch64_swp2_relax
                0x00000000001059f0       0x14 /tmp/tmp.jif7ZMerv3.o
                0x00000000001059f0                __aarch64_swp2_relax
 .text.__aarch64_swp4_relax
                0x0000000000105a04       0x14 /tmp/tmp.jif7ZMerv3.o
                0x0000000000105a04                __aarch64_swp4_relax
 .text.__aarch64_swp8_relax
                0x0000000000105a18       0x14 /tmp/tmp.jif7ZMerv3.o
                0x0000000000105a18                __aarch64_swp8_relax
 .text.__aarch64_swp1_acq
                0x0000000000105a2c       0x14 /tmp/tmp.jif7ZMerv3.o
                0x0000000000105a2c                __aarch64_swp1_acq
 .text.__aarch64_swp2_acq
                0x0000000000105a40       0x14 /tmp/tmp.jif7ZMerv3.o
                0x0000000000105a40                __aarch64_swp2_acq
 .text.__aarch64_swp4_acq
                0x0000000000105a54       0x14 /tmp/tmp.jif7ZMerv3.o
                0x0000000000105a54                __aarch64_swp4_acq
 .text.__aarch64_swp8_acq
                0x0000000000105a68       0x14 /tmp/tmp.jif7ZMerv3.o
                0x0000000000105a68                __aarch64_swp8_acq
 .text.__aarch64_swp1_rel
                0x0000000000105a7c       0x14 /tmp/tmp.jif7ZMerv3.o
                0x0000000000105a7c                __aarch64_swp1_rel
 .text.__aarch64_swp2_rel
                0x0000000000105a90       0x14 /tmp/tmp.jif7ZMerv3.o
                0x0000000000105a90                __aarch64_swp2_rel
 .text.__aarch64_swp4_rel
                0x0000000000105aa4       0x14 /tmp/tmp.jif7ZMerv3.o
                0x0000000000105aa4                __aarch64_swp4_rel
 .text.__aarch64_swp8_rel
                0x0000000000105ab8       0x14 /tmp/tmp.jif7ZMerv3.o
                0x0000000000105ab8                __aarch64_swp8_rel
 .text.__aarch64_swp1_acq_rel
                0x0000000000105acc       0x14 /tmp/tmp.jif7ZMerv3.o
                0x0000000000105acc                __aarch64_swp1_acq_rel
 .text.__aarch64_swp2_acq_rel
                0x0000000000105ae0       0x14 /tmp/tmp.jif7ZMerv3.o
                0x0000000000105ae0                __aarch64_swp2_acq_rel
 .text.__aarch64_swp4_acq_rel
                0x0000000000105af4       0x14 /tmp/tmp.jif7ZMerv3.o
                0x0000000000105af4                __aarch64_swp4_acq_rel
 .text.__aarch64_swp8_acq_rel
                0x0000000000105b08       0x14 /tmp/tmp.jif7ZMerv3.o
                0x0000000000105b08                __aarch64_swp8_acq_rel
 .text.__aarch64_ldadd1_relax
                0x0000000000105b1c       0x18 /tmp/tmp.jif7ZMerv3.o
                0x0000000000105b1c                __aarch64_ldadd1_relax
 .text.__aarch64_ldadd2_relax
                0x0000000000105b34       0x18 /tmp/tmp.jif7ZMerv3.o
                0x0000000000105b34                __aarch64_ldadd2_relax
 .text.__aarch64_ldadd4_relax
                0x0000000000105b4c       0x18 /tmp/tmp.jif7ZMerv3.o
                0x0000000000105b4c                __aarch64_ldadd4_relax
 .text.__aarch64_ldadd8_relax
                0x0000000000105b64       0x18 /tmp/tmp.jif7ZMerv3.o
                0x0000000000105b64                __aarch64_ldadd8_relax
 .text.__aarch64_ldadd1_acq
                0x0000000000105b7c       0x18 /tmp/tmp.jif7ZMerv3.o
                0x0000000000105b7c                __aarch64_ldadd1_acq
 .text.__aarch64_ldadd2_acq
                0x0000000000105b94       0x18 /tmp/tmp.jif7ZMerv3.o
                0x0000000000105b94                __aarch64_ldadd2_acq
 .text.__aarch64_ldadd4_acq
                0x0000000000105bac       0x18 /tmp/tmp.jif7ZMerv3.o
                0x0000000000105bac                __aarch64_ldadd4_acq
 .text.__aarch64_ldadd8_acq
                0x0000000000105bc4       0x18 /tmp/tmp.jif7ZMerv3.o
                0x0000000000105bc4                __aarch64_ldadd8_acq
 .text.__aarch64_ldadd1_rel
                0x0000000000105bdc       0x18 /tmp/tmp.jif7ZMerv3.o
                0x0000000000105bdc                __aarch64_ldadd1_rel
 .text.__aarch64_ldadd2_rel
                0x0000000000105bf4       0x18 /tmp/tmp.jif7ZMerv3.o
                0x0000000000105bf4                __aarch64_ldadd2_rel
 .text.__aarch64_ldadd4_rel
                0x0000000000105c0c       0x18 /tmp/tmp.jif7ZMerv3.o
                0x0000000000105c0c                __aarch64_ldadd4_rel
 .text.__aarch64_ldadd8_rel
                0x0000000000105c24       0x18 /tmp/tmp.jif7ZMerv3.o
                0x0000000000105c24                __aarch64_ldadd8_rel
 .text.__aarch64_ldadd1_acq_rel
                0x0000000000105c3c       0x18 /tmp/tmp.jif7ZMerv3.o
                0x0000000000105c3c                __aarch64_ldadd1_acq_rel
 .text.__aarch64_ldadd2_acq_rel
                0x0000000000105c54       0x18 /tmp/tmp.jif7ZMerv3.o
                0x0000000000105c54                __aarch64_ldadd2_acq_rel
 .text.__aarch64_ldadd4_acq_rel
                0x0000000000105c6c       0x18 /tmp/tmp.jif7ZMerv3.o
                0x0000000000105c6c                __aarch64_ldadd4_acq_rel
 .text.__aarch64_ldadd8_acq_rel
                0x0000000000105c84       0x18 /tmp/tmp.jif7ZMerv3.o
                0x0000000000105c84                __aarch64_ldadd8_acq_rel
 .text.__aarch64_ldclr1_relax
                0x0000000000105c9c       0x18 /tmp/tmp.jif7ZMerv3.o
                0x0000000000105c9c                __aarch64_ldclr1_relax
 .text.__aarch64_ldclr2_relax
                0x0000000000105cb4       0x18 /tmp/tmp.jif7ZMerv3.o
                0x0000000000105cb4                __aarch64_ldclr2_relax
 .text.__aarch64_ldclr4_relax
                0x0000000000105ccc       0x18 /tmp/tmp.jif7ZMerv3.o
                0x0000000000105ccc                __aarch64_ldclr4_relax
 .text.__aarch64_ldclr8_relax
                0x0000000000105ce4       0x18 /tmp/tmp.jif7ZMerv3.o
                0x0000000000105ce4                __aarch64_ldclr8_relax
 .text.__aarch64_ldclr1_acq
                0x0000000000105cfc       0x18 /tmp/tmp.jif7ZMerv3.o
                0x0000000000105cfc                __aarch64_ldclr1_acq
 .text.__aarch64_ldclr2_acq
                0x0000000000105d14       0x18 /tmp/tmp.jif7ZMerv3.o
                0x0000000000105d14                __aarch64_ldclr2_acq
 .text.__aarch64_ldclr4_acq
                0x0000000000105d2c       0x18 /tmp/tmp.jif7ZMerv3.o
                0x0000000000105d2c                __aarch64_ldclr4_acq
 .text.__aarch64_ldclr8_acq
                0x0000000000105d44       0x18 /tmp/tmp.jif7ZMerv3.o
                0x0000000000105d44                __aarch64_ldclr8_acq
 .text.__aarch64_ldclr1_rel
                0x0000000000105d5c       0x18 /tmp/tmp.jif7ZMerv3.o
                0x0000000000105d5c                __aarch64_ldclr1_rel
 .text.__aarch64_ldclr2_rel
                0x0000000000105d74       0x18 /tmp/tmp.jif7ZMerv3.o
                0x0000000000105d74                __aarch64_ldclr2_rel
 .text.__aarch64_ldclr4_rel
                0x0000000000105d8c       0x18 /tmp/tmp.jif7ZMerv3.o
                0x0000000000105d8c                __aarch64_ldclr4_rel
 .text.__aarch64_ldclr8_rel
                0x0000000000105da4       0x18 /tmp/tmp.jif7ZMerv3.o
                0x0000000000105da4                __aarch64_ldclr8_rel
 .text.__aarch64_ldclr1_acq_rel
                0x0000000000105dbc       0x18 /tmp/tmp.jif7ZMerv3.o
                0x0000000000105dbc                __aarch64_ldclr1_acq_rel
 .text.__aarch64_ldclr2_acq_rel
                0x0000000000105dd4       0x18 /tmp/tmp.jif7ZMerv3.o
                0x0000000000105dd4                __aarch64_ldclr2_acq_rel
 .text.__aarch64_ldclr4_acq_rel
                0x0000000000105dec       0x18 /tmp/tmp.jif7ZMerv3.o
                0x0000000000105dec                __aarch64_ldclr4_acq_rel
 .text.__aarch64_ldclr8_acq_rel
                0x0000000000105e04       0x18 /tmp/tmp.jif7ZMerv3.o
                0x0000000000105e04                __aarch64_ldclr8_acq_rel
 .text.__aarch64_ldeor1_relax
                0x0000000000105e1c       0x18 /tmp/tmp.jif7ZMerv3.o
                0x0000000000105e1c                __aarch64_ldeor1_relax
 .text.__aarch64_ldeor2_relax
                0x0000000000105e34       0x18 /tmp/tmp.jif7ZMerv3.o
                0x0000000000105e34                __aarch64_ldeor2_relax
 .text.__aarch64_ldeor4_relax
                0x0000000000105e4c       0x18 /tmp/tmp.jif7ZMerv3.o
                0x0000000000105e4c                __aarch64_ldeor4_relax
 .text.__aarch64_ldeor8_relax
                0x0000000000105e64       0x18 /tmp/tmp.jif7ZMerv3.o
                0x0000000000105e64                __aarch64_ldeor8_relax
 .text.__aarch64_ldeor1_acq
                0x0000000000105e7c       0x18 /tmp/tmp.jif7ZMerv3.o
                0x0000000000105e7c                __aarch64_ldeor1_acq
 .text.__aarch64_ldeor2_acq
                0x0000000000105e94       0x18 /tmp/tmp.jif7ZMerv3.o
                0x0000000000105e94                __aarch64_ldeor2_acq
 .text.__aarch64_ldeor4_acq
                0x0000000000105eac       0x18 /tmp/tmp.jif7ZMerv3.o
                0x0000000000105eac                __aarch64_ldeor4_acq
 .text.__aarch64_ldeor8_acq
                0x0000000000105ec4       0x18 /tmp/tmp.jif7ZMerv3.o
                0x0000000000105ec4                __aarch64_ldeor8_acq
 .text.__aarch64_ldeor1_rel
                0x0000000000105edc       0x18 /tmp/tmp.jif7ZMerv3.o
                0x0000000000105edc                __aarch64_ldeor1_rel
 .text.__aarch64_ldeor2_rel
                0x0000000000105ef4       0x18 /tmp/tmp.jif7ZMerv3.o
                0x0000000000105ef4                __aarch64_ldeor2_rel
 .text.__aarch64_ldeor4_rel
                0x0000000000105f0c       0x18 /tmp/tmp.jif7ZMerv3.o
                0x0000000000105f0c                __aarch64_ldeor4_rel
 .text.__aarch64_ldeor8_rel
                0x0000000000105f24       0x18 /tmp/tmp.jif7ZMerv3.o
                0x0000000000105f24                __aarch64_ldeor8_rel
 .text.__aarch64_ldeor1_acq_rel
                0x0000000000105f3c       0x18 /tmp/tmp.jif7ZMerv3.o
                0x0000000000105f3c                __aarch64_ldeor1_acq_rel
 .text.__aarch64_ldeor2_acq_rel
                0x0000000000105f54       0x18 /tmp/tmp.jif7ZMerv3.o
                0x0000000000105f54                __aarch64_ldeor2_acq_rel
 .text.__aarch64_ldeor4_acq_rel
                0x0000000000105f6c       0x18 /tmp/tmp.jif7ZMerv3.o
                0x0000000000105f6c                __aarch64_ldeor4_acq_rel
 .text.__aarch64_ldeor8_acq_rel
                0x0000000000105f84       0x18 /tmp/tmp.jif7ZMerv3.o
                0x0000000000105f84                __aarch64_ldeor8_acq_rel
 .text.__aarch64_ldset1_relax
                0x0000000000105f9c       0x18 /tmp/tmp.jif7ZMerv3.o
                0x0000000000105f9c                __aarch64_ldset1_relax
 .text.__aarch64_ldset2_relax
                0x0000000000105fb4       0x18 /tmp/tmp.jif7ZMerv3.o
                0x0000000000105fb4                __aarch64_ldset2_relax
 .text.__aarch64_ldset4_relax
                0x0000000000105fcc       0x18 /tmp/tmp.jif7ZMerv3.o
                0x0000000000105fcc                __aarch64_ldset4_relax
 .text.__aarch64_ldset8_relax
                0x0000000000105fe4       0x18 /tmp/tmp.jif7ZMerv3.o
                0x0000000000105fe4                __aarch64_ldset8_relax
 .text.__aarch64_ldset1_acq
                0x0000000000105ffc       0x18 /tmp/tmp.jif7ZMerv3.o
                0x0000000000105ffc                __aarch64_ldset1_acq
 .text.__aarch64_ldset2_acq
                0x0000000000106014       0x18 /tmp/tmp.jif7ZMerv3.o
                0x0000000000106014                __aarch64_ldset2_acq
 .text.__aarch64_ldset4_acq
                0x000000000010602c       0x18 /tmp/tmp.jif7ZMerv3.o
                0x000000000010602c                __aarch64_ldset4_acq
 .text.__aarch64_ldset8_acq
                0x0000000000106044       0x18 /tmp/tmp.jif7ZMerv3.o
                0x0000000000106044                __aarch64_ldset8_acq
 .text.__aarch64_ldset1_rel
                0x000000000010605c       0x18 /tmp/tmp.jif7ZMerv3.o
                0x000000000010605c                __aarch64_ldset1_rel
 .text.__aarch64_ldset2_rel
                0x0000000000106074       0x18 /tmp/tmp.jif7ZMerv3.o
                0x0000000000106074                __aarch64_ldset2_rel
 .text.__aarch64_ldset4_rel
                0x000000000010608c       0x18 /tmp/tmp.jif7ZMerv3.o
                0x000000000010608c                __aarch64_ldset4_rel
 .text.__aarch64_ldset8_rel
                0x00000000001060a4       0x18 /tmp/tmp.jif7ZMerv3.o
                0x00000000001060a4                __aarch64_ldset8_rel
 .text.__aarch64_ldset1_acq_rel
                0x00000000001060bc       0x18 /tmp/tmp.jif7ZMerv3.o
                0x00000000001060bc                __aarch64_ldset1_acq_rel
 .text.__aarch64_ldset2_acq_rel
                0x00000000001060d4       0x18 /tmp/tmp.jif7ZMerv3.o
                0x00000000001060d4                __aarch64_ldset2_acq_rel
 .text.__aarch64_ldset4_acq_rel
                0x00000000001060ec       0x18 /tmp/tmp.jif7ZMerv3.o
                0x00000000001060ec                __aarch64_ldset4_acq_rel
 .text.__aarch64_ldset8_acq_rel
                0x0000000000106104       0x18 /tmp/tmp.jif7ZMerv3.o
                0x0000000000106104                __aarch64_ldset8_acq_rel
 .text          0x000000000010611c      0x220 /tmp/tmp.wEo1ns4GKV.o
                0x0000000000106244                <bytemuck::checked::CheckedCastError as core::fmt::Display>::fmt
                0x00000000001062c0                <bytemuck::PodCastError as core::fmt::Display>::fmt
 .text          0x000000000010633c    0x38d68 /tmp/tmp.yY4AXHMtRa.o
                0x0000000000109d60                alloc::raw_vec::RawVec<T,A>::grow_one
                0x0000000000109d60                alloc::raw_vec::RawVec<T,A>::grow_one
                0x0000000000109ef8                alloc::raw_vec::RawVec<T,A>::grow_one
                0x000000000010a0b4                alloc::raw_vec::RawVec<T,A>::grow_one
                0x000000000010a3e0                <proc_macro::bridge::buffer::Buffer as core::convert::From<alloc::vec::Vec<u8>>>::from::reserve
                0x000000000010a4d4                <proc_macro::bridge::buffer::Buffer as core::convert::From<alloc::vec::Vec<u8>>>::from::drop
                0x000000000010a560                <proc_macro::bridge::client::TokenStream as core::clone::Clone>::clone
                0x000000000010a974                <proc_macro::bridge::client::SourceFile as core::clone::Clone>::clone
                0x000000000010ad88                <proc_macro::bridge::client::Span as core::fmt::Debug>::fmt
                0x000000000010b258                <proc_macro::bridge::client::state::set::RestoreOnDrop as core::ops::drop::Drop>::drop
                0x000000000010bd50                proc_macro::bridge::client::maybe_install_panic_hook
                0x000000000010c050                <proc_macro::bridge::rpc::PanicMessage as core::convert::From<alloc::boxed::Box<dyn core::any::Any+core::marker::Send>>>::from
                0x000000000010c454                proc_macro::bridge::rpc::<impl core::convert::From<proc_macro::bridge::rpc::PanicMessage> for alloc::boxed::Box<dyn core::any::Any+core::marker::Send>>::from
                0x000000000010c6a4                proc_macro::bridge::server::RunningSameThreadGuard::new
                0x000000000010c724                <proc_macro::bridge::server::RunningSameThreadGuard as core::ops::drop::Drop>::drop
                0x000000000010c748                proc_macro::bridge::symbol::Symbol::new
                0x000000000010e248                proc_macro::bridge::symbol::Symbol::invalidate_all
                0x000000000010e67c                <proc_macro::bridge::symbol::Symbol as core::fmt::Debug>::fmt
                0x000000000010e930                <proc_macro::bridge::symbol::Symbol as core::fmt::Display>::fmt
                0x000000000010f04c                proc_macro::bridge::symbol::Interner::get
                0x000000000010f150                <proc_macro::Span as proc_macro::diagnostic::MultiSpan>::into_spans
                0x000000000010f228                <&[proc_macro::Span] as proc_macro::diagnostic::MultiSpan>::into_spans
                0x000000000010f3a4                <proc_macro::diagnostic::Children as core::iter::traits::iterator::Iterator>::next
                0x000000000010f41c                proc_macro::diagnostic::Diagnostic::emit
                0x0000000000110d30                <proc_macro::TokenTree as proc_macro::to_tokens::ToTokens>::to_tokens
                0x0000000000110f50                <proc_macro::TokenTree as proc_macro::to_tokens::ToTokens>::into_token_stream
                0x000000000011117c                <proc_macro::TokenStream as proc_macro::to_tokens::ToTokens>::to_tokens
                0x0000000000111630                <proc_macro::Literal as proc_macro::to_tokens::ToTokens>::to_tokens
                0x000000000011169c                <proc_macro::Ident as proc_macro::to_tokens::ToTokens>::to_tokens
                0x0000000000111700                <proc_macro::Punct as proc_macro::to_tokens::ToTokens>::to_tokens
                0x0000000000111778                <proc_macro::Group as proc_macro::to_tokens::ToTokens>::to_tokens
                0x0000000000111844                <u8 as proc_macro::to_tokens::ToTokens>::to_tokens
                0x00000000001118bc                <u16 as proc_macro::to_tokens::ToTokens>::to_tokens
                0x0000000000111934                <u32 as proc_macro::to_tokens::ToTokens>::to_tokens
                0x00000000001119ac                <u64 as proc_macro::to_tokens::ToTokens>::to_tokens
                0x0000000000111a24                <u128 as proc_macro::to_tokens::ToTokens>::to_tokens
                0x0000000000111a9c                <i8 as proc_macro::to_tokens::ToTokens>::to_tokens
                0x0000000000111b14                <i16 as proc_macro::to_tokens::ToTokens>::to_tokens
                0x0000000000111b8c                <i32 as proc_macro::to_tokens::ToTokens>::to_tokens
                0x0000000000111c04                <i64 as proc_macro::to_tokens::ToTokens>::to_tokens
                0x0000000000111c7c                <i128 as proc_macro::to_tokens::ToTokens>::to_tokens
                0x0000000000111cf4                <f32 as proc_macro::to_tokens::ToTokens>::to_tokens
                0x0000000000111d6c                <f64 as proc_macro::to_tokens::ToTokens>::to_tokens
                0x0000000000111de4                <usize as proc_macro::to_tokens::ToTokens>::to_tokens
                0x0000000000111e5c                <isize as proc_macro::to_tokens::ToTokens>::to_tokens
                0x0000000000111ed4                <bool as proc_macro::to_tokens::ToTokens>::to_tokens
                0x0000000000112044                <char as proc_macro::to_tokens::ToTokens>::to_tokens
                0x00000000001120bc                <str as proc_macro::to_tokens::ToTokens>::to_tokens
                0x000000000011213c                <alloc::string::String as proc_macro::to_tokens::ToTokens>::to_tokens
                0x00000000001121b4                <core::ffi::c_str::CStr as proc_macro::to_tokens::ToTokens>::to_tokens
                0x0000000000112234                <alloc::ffi::c_str::CString as proc_macro::to_tokens::ToTokens>::to_tokens
                0x00000000001122ac                proc_macro::is_available
                0x00000000001122fc                <proc_macro::LexError as core::fmt::Display>::fmt
                0x0000000000112338                <proc_macro::ExpandError as core::fmt::Display>::fmt
                0x0000000000112374                proc_macro::TokenStream::is_empty
                0x00000000001127b4                proc_macro::TokenStream::expand_expr
                0x0000000000112df8                <proc_macro::TokenStream as core::str::traits::FromStr>::from_str
                0x00000000001132e4                <proc_macro::TokenStream as core::fmt::Display>::fmt
                0x0000000000113848                <proc_macro::TokenStream as core::fmt::Debug>::fmt
                0x0000000000113c78                <proc_macro::TokenStream as core::convert::From<proc_macro::TokenTree>>::from
                0x00000000001141c0                proc_macro::ConcatTreesHelper::new
                0x0000000000114328                proc_macro::ConcatTreesHelper::push
                0x000000000011455c                proc_macro::ConcatTreesHelper::build
                0x00000000001145ec                proc_macro::ConcatTreesHelper::append_to
                0x0000000000114690                proc_macro::ConcatStreamsHelper::new
                0x00000000001147ec                proc_macro::ConcatStreamsHelper::push
                0x00000000001148f4                proc_macro::ConcatStreamsHelper::build
                0x00000000001149ec                proc_macro::ConcatStreamsHelper::append_to
                0x00000000001150dc                <proc_macro::token_stream::IntoIter as core::iter::traits::iterator::Iterator>::next
                0x0000000000115288                <proc_macro::token_stream::IntoIter as core::iter::traits::iterator::Iterator>::size_hint
                0x00000000001152f0                <proc_macro::token_stream::IntoIter as core::iter::traits::iterator::Iterator>::count
                0x0000000000115354                proc_macro::token_stream::<impl core::iter::traits::collect::IntoIterator for proc_macro::TokenStream>::into_iter
                0x00000000001163e4                proc_macro::quote::quote
                0x0000000000127288                proc_macro::quote::quote_span
                0x0000000000127c4c                proc_macro::Span::def_site
                0x0000000000127d60                proc_macro::Span::call_site
                0x0000000000127e74                proc_macro::Span::mixed_site
                0x0000000000127f88                proc_macro::Span::source_file
                0x000000000012839c                proc_macro::Span::parent
                0x00000000001287b0                proc_macro::Span::source
                0x0000000000128bc4                proc_macro::Span::byte_range
                0x000000000012912c                proc_macro::Span::start
                0x0000000000129540                proc_macro::Span::end
                0x0000000000129954                proc_macro::Span::line
                0x0000000000129d58                proc_macro::Span::column
                0x000000000012a15c                proc_macro::Span::join
                0x000000000012a63c                proc_macro::Span::resolved_at
                0x000000000012ab1c                proc_macro::Span::located_at
                0x000000000012ab64                proc_macro::Span::source_text
                0x000000000012b0a0                proc_macro::Span::save_span
                0x000000000012b4a4                proc_macro::Span::recover_proc_macro_span
                0x000000000012b8b4                <proc_macro::Span as core::fmt::Debug>::fmt
                0x000000000012b8f4                proc_macro::SourceFile::path
                0x000000000012bce4                proc_macro::SourceFile::is_real
                0x000000000012c0f8                <proc_macro::SourceFile as core::fmt::Debug>::fmt
                0x000000000012c2d4                <proc_macro::SourceFile as core::cmp::PartialEq>::eq
                0x000000000012c7b8                <proc_macro::TokenTree as core::fmt::Debug>::fmt
                0x000000000012ca3c                <proc_macro::TokenTree as core::fmt::Display>::fmt
                0x000000000012cb7c                proc_macro::Group::new
                0x000000000012cd0c                proc_macro::Group::stream
                0x000000000012cd74                <proc_macro::Group as core::fmt::Display>::fmt
                0x000000000012cf7c                <proc_macro::Group as core::fmt::Debug>::fmt
                0x000000000012d1b4                proc_macro::Punct::new
                0x000000000012d38c                <proc_macro::Punct as core::fmt::Display>::fmt
                0x000000000012d40c                <proc_macro::Punct as core::fmt::Debug>::fmt
                0x000000000012d4e4                proc_macro::Ident::new
                0x000000000012d544                proc_macro::Ident::new_raw
                0x000000000012d5a8                <proc_macro::Ident as core::fmt::Display>::fmt
                0x000000000012d650                <proc_macro::Ident as core::fmt::Debug>::fmt
                0x000000000012d968                proc_macro::Literal::f32_unsuffixed
                0x000000000012deb8                proc_macro::Literal::f32_suffixed
                0x000000000012e268                proc_macro::Literal::f64_unsuffixed
                0x000000000012e7b8                proc_macro::Literal::f64_suffixed
                0x000000000012eb68                proc_macro::Literal::string
                0x000000000012eda8                proc_macro::Literal::character
                0x000000000012f164                proc_macro::Literal::byte_character
                0x000000000012f3a0                proc_macro::Literal::byte_string
                0x000000000012f5e4                proc_macro::Literal::c_string
                0x000000000012ff10                <proc_macro::Literal as core::str::traits::FromStr>::from_str
                0x00000000001305b0                <proc_macro::Literal as core::fmt::Display>::fmt
                0x0000000000130b44                <proc_macro::Literal as core::fmt::Debug>::fmt
                0x0000000000130c68                <proc_macro::bridge::client::FreeFunctions as core::ops::drop::Drop>::drop
                0x0000000000131200                <proc_macro::bridge::client::TokenStream as core::ops::drop::Drop>::drop
                0x000000000013124c                <proc_macro::bridge::client::SourceFile as core::ops::drop::Drop>::drop
                0x0000000000131298                proc_macro::bridge::client::FreeFunctions::injected_env_var
                0x00000000001318a0                proc_macro::bridge::client::FreeFunctions::track_env_var
                0x00000000001321c4                proc_macro::bridge::client::FreeFunctions::track_path
                0x00000000001336f0                proc_macro::bridge::client::Span::subspan
                0x000000000013aa24                proc_macro::Literal::u8_suffixed
                0x000000000013ac70                proc_macro::Literal::u16_suffixed
                0x000000000013af90                proc_macro::Literal::u32_suffixed
                0x000000000013b2b0                proc_macro::Literal::u64_suffixed
                0x000000000013b5d0                proc_macro::Literal::u128_suffixed
                0x000000000013b8f4                proc_macro::Literal::usize_suffixed
                0x000000000013bc14                proc_macro::Literal::i8_suffixed
                0x000000000013be60                proc_macro::Literal::i16_suffixed
                0x000000000013c180                proc_macro::Literal::i32_suffixed
                0x000000000013c4a0                proc_macro::Literal::i64_suffixed
                0x000000000013c7c0                proc_macro::Literal::i128_suffixed
                0x000000000013cae4                proc_macro::Literal::isize_suffixed
                0x000000000013ce04                proc_macro::Literal::u8_unsuffixed
                0x000000000013d03c                proc_macro::Literal::u16_unsuffixed
                0x000000000013d340                proc_macro::Literal::u32_unsuffixed
                0x000000000013d644                proc_macro::Literal::u64_unsuffixed
                0x000000000013d948                proc_macro::Literal::u128_unsuffixed
                0x000000000013dc50                proc_macro::Literal::usize_unsuffixed
                0x000000000013df54                proc_macro::Literal::i8_unsuffixed
                0x000000000013e18c                proc_macro::Literal::i16_unsuffixed
                0x000000000013e490                proc_macro::Literal::i32_unsuffixed
                0x000000000013e794                proc_macro::Literal::i64_unsuffixed
                0x000000000013ea98                proc_macro::Literal::i128_unsuffixed
                0x000000000013eda0                proc_macro::Literal::isize_unsuffixed
 .text          0x000000000013f0a4      0x588 /tmp/tmp.l76HFRc2z8.o
                0x000000000013f39c                __rust_panic_cleanup
                0x000000000013f4b4                __rust_start_panic
 .text          0x000000000013f62c    0x124d0 /tmp/tmp.368W3XSNDN.o
                0x0000000000141880                <rustc_demangle::legacy::Demangle as core::fmt::Display>::fmt
                0x00000000001435d8                <rustc_demangle::v0::Demangle as core::fmt::Display>::fmt
                0x000000000014363c                <rustc_demangle::v0::Ident as core::fmt::Display>::fmt
                0x000000000014f764                rustc_demangle::demangle
                0x0000000000151628                rustc_demangle::try_demangle
                0x00000000001516c4                <rustc_demangle::DemangleStyle as core::fmt::Display>::fmt
                0x0000000000151820                <rustc_demangle::Demangle as core::fmt::Display>::fmt
                0x0000000000151a80                <rustc_demangle::Demangle as core::fmt::Debug>::fmt
 .text          0x0000000000151afc    0x1cca4 /tmp/tmp.7cB97wCUxJ.o
                0x0000000000151afc                libm::math::acos::acos
                0x0000000000151f04                libm::math::acosf::acosf
                0x0000000000152294                libm::math::acosh::acosh
                0x00000000001523f0                libm::math::acoshf::acoshf
                0x000000000015299c                libm::math::asin::asin
                0x0000000000152da0                libm::math::asinf::asinf
                0x0000000000153038                libm::math::asinh::asinh
                0x0000000000153218                libm::math::asinhf::asinhf
                0x00000000001536f0                libm::math::atan::atan
                0x0000000000153b58                libm::math::atan2::atan2
                0x0000000000153f34                libm::math::atan2f::atan2f
                0x00000000001542d4                libm::math::atanf::atanf
                0x00000000001546bc                libm::math::atanh::atanh
                0x0000000000154830                libm::math::atanhf::atanhf
                0x00000000001549ac                libm::math::ceil::ceil
                0x0000000000154b2c                libm::math::ceilf::ceilf
                0x0000000000154c84                libm::math::cos::cos
                0x0000000000155158                libm::math::cosf::cosf
                0x0000000000155898                libm::math::cosh::cosh
                0x0000000000155a30                libm::math::coshf::coshf
                0x0000000000155fc8                libm::math::erf::erf
                0x000000000015625c                libm::math::erf::erfc
                0x00000000001569a4                libm::math::erff::erff
                0x0000000000156c40                libm::math::erff::erfcf
                0x0000000000156f64                libm::math::exp::exp
                0x0000000000157468                libm::math::exp10::exp10
                0x0000000000157740                libm::math::exp10f::exp10f
                0x0000000000157cc8                libm::math::exp2::exp2
                0x000000000015811c                libm::math::exp2f::exp2f
                0x00000000001583f4                libm::math::expf::expf
                0x00000000001588a4                libm::math::expm1::expm1
                0x0000000000158f50                libm::math::expm1f::expm1f
                0x00000000001595d4                libm::math::floor::floor
                0x000000000015974c                libm::math::floorf::floorf
                0x00000000001598a4                libm::math::fma::fma
                0x000000000015a2e8                libm::math::fmod::fmod
                0x000000000015a868                libm::math::fmodf::fmodf
                0x000000000015ade4                libm::math::frexp::frexp
                0x000000000015aec8                libm::math::frexpf::frexpf
                0x000000000015afb0                libm::math::hypot::hypot
                0x000000000015b230                libm::math::hypotf::hypotf
                0x000000000015b438                libm::math::ilogb::ilogb
                0x000000000015b590                libm::math::ilogbf::ilogbf
                0x000000000015bb9c                libm::math::j0::j0
                0x000000000015bdc8                libm::math::j0::y0
                0x000000000015c68c                libm::math::j0f::j0f
                0x000000000015c8c0                libm::math::j0f::y0f
                0x000000000015d370                libm::math::j1::j1
                0x000000000015d560                libm::math::j1::y1
                0x000000000015dd60                libm::math::j1f::j1f
                0x000000000015df68                libm::math::j1f::y1f
                0x000000000015e450                libm::math::jn::jn
                0x000000000015f6f4                libm::math::jn::yn
                0x000000000015fb90                libm::math::jnf::jnf
                0x0000000000160a94                libm::math::jnf::ynf
                0x0000000000160da4                libm::math::ldexp::ldexp
                0x0000000000160f58                libm::math::ldexpf::ldexpf
                0x0000000000161104                libm::math::lgamma::lgamma
                0x000000000016113c                libm::math::lgamma_r::lgamma_r
                0x0000000000161ee0                libm::math::lgammaf::lgammaf
                0x0000000000161f18                libm::math::lgammaf_r::lgammaf_r
                0x0000000000162fec                libm::math::log::log
                0x00000000001632b4                libm::math::log10::log10
                0x00000000001635cc                libm::math::log10f::log10f
                0x000000000016386c                libm::math::log1p::log1p
                0x0000000000163bf4                libm::math::log1pf::log1pf
                0x0000000000163f54                libm::math::log2::log2
                0x0000000000164250                libm::math::log2f::log2f
                0x0000000000164728                libm::math::nextafter::nextafter
                0x0000000000164964                libm::math::nextafterf::nextafterf
                0x0000000000164bac                libm::math::pow::pow
                0x0000000000165cf8                libm::math::powf::powf
                0x0000000000166ac0                libm::math::remainder::remainder
                0x0000000000166b00                libm::math::remainderf::remainderf
                0x0000000000166b40                libm::math::remquo::remquo
                0x000000000016718c                libm::math::remquof::remquof
                0x00000000001677cc                libm::math::round::round
                0x00000000001678a4                libm::math::roundf::roundf
                0x0000000000167cdc                libm::math::sin::sin
                0x00000000001681bc                libm::math::sincos::sincos
                0x00000000001685b8                libm::math::sincosf::sincosf
                0x0000000000168f90                libm::math::sinf::sinf
                0x0000000000169750                libm::math::sinh::sinh
                0x0000000000169900                libm::math::sinhf::sinhf
                0x0000000000169aac                libm::math::sqrt::sqrt
                0x000000000016a418                libm::math::sqrtf::sqrtf
                0x000000000016a984                libm::math::tan::tan
                0x000000000016acc8                libm::math::tanf::tanf
                0x000000000016b31c                libm::math::tanh::tanh
                0x000000000016b53c                libm::math::tanhf::tanhf
                0x000000000016b75c                libm::math::tgamma::tgamma
                0x000000000016c318                libm::math::tgammaf::tgammaf
                0x000000000016c358                libm::math::trunc::trunc
                0x000000000016c41c                libm::math::truncf::truncf
 .text          0x000000000016e7a0    0x7818c /tmp/tmp.fly7mVkzgC.o
                0x000000000017e120                alloc::sync::Arc<T,A>::drop_slow
                0x000000000017e238                alloc::sync::Arc<T,A>::drop_slow
                0x000000000017e5a4                alloc::sync::Arc<T,A>::drop_slow
                0x000000000017e6e8                alloc::sync::Arc<T,A>::drop_slow
                0x000000000017e930                alloc::sync::Arc<T,A>::drop_slow
                0x000000000017ea24                alloc::raw_vec::RawVec<T,A>::grow_one
                0x000000000017ea24                alloc::raw_vec::RawVec<T,A>::grow_one
                0x000000000017ea24                alloc::raw_vec::RawVec<T,A>::grow_one
                0x000000000017ebbc                alloc::raw_vec::RawVec<T,A>::grow_one
                0x000000000017ebbc                alloc::raw_vec::RawVec<T,A>::grow_one
                0x000000000017ed78                alloc::raw_vec::RawVec<T,A>::grow_one
                0x000000000017ef34                alloc::raw_vec::RawVec<T,A>::grow_one
                0x000000000017f0f0                alloc::raw_vec::RawVec<T,A>::grow_one
                0x000000000017f288                alloc::raw_vec::RawVec<T,A>::grow_one
                0x0000000000180928                std::rt::lang_start_internal
                0x00000000001817c8                std::thread::scoped::ScopeData::increment_num_running_threads
                0x0000000000181830                std::thread::scoped::ScopeData::decrement_num_running_threads
                0x000000000018190c                <std::thread::scoped::Scope as core::fmt::Debug>::fmt
                0x00000000001819e4                std::thread::current::set_current
                0x0000000000181d04                std::thread::current::current_or_unnamed
                0x0000000000181f50                std::thread::current::current
                0x0000000000182024                <std::thread::spawnhook::SpawnHooks as core::ops::drop::Drop>::drop
                0x0000000000182344                std::thread::spawnhook::run_spawn_hooks
                0x0000000000182a08                std::thread::spawnhook::ChildSpawnHooks::run
                0x0000000000182f68                <std::thread::local::AccessError as core::fmt::Debug>::fmt
                0x0000000000182fbc                <std::thread::local::AccessError as core::fmt::Display>::fmt
                0x0000000000182ff8                std::thread::Builder::name
                0x00000000001830d8                std::thread::yield_now
                0x0000000000183100                std::thread::sleep_ms
                0x00000000001832e0                std::thread::sleep
                0x0000000000183494                std::thread::sleep_until
                0x0000000000183698                <std::thread::PanicGuard as core::ops::drop::Drop>::drop
                0x00000000001836f4                std::thread::park
                0x00000000001839cc                std::thread::park_timeout_ms
                0x0000000000183a24                std::thread::park_timeout
                0x0000000000183e34                std::thread::ThreadId::new
                0x0000000000183ef8                <std::thread::thread_name_string::ThreadNameString as core::convert::From<alloc::string::String>>::from
                0x00000000001841e4                std::thread::Thread::new
                0x000000000018443c                std::thread::Thread::park
                0x00000000001845e8                std::thread::Thread::park_timeout
                0x0000000000184864                std::thread::Thread::name
                0x0000000000184940                std::thread::Thread::from_raw
                0x0000000000184970                std::thread::Thread::cname
                0x0000000000184a50                <std::thread::Thread as core::fmt::Debug>::fmt
                0x0000000000184bc4                std::thread::available_parallelism
                0x0000000000188458                <std::backtrace::Backtrace as core::fmt::Debug>::fmt
                0x0000000000188804                <std::backtrace::BacktraceFrame as core::fmt::Debug>::fmt
                0x00000000001888f8                <std::backtrace::BacktraceSymbol as core::fmt::Debug>::fmt
                0x0000000000188cbc                <std::backtrace::BytesOrWide as core::fmt::Debug>::fmt
                0x0000000000188ff8                std::backtrace::Backtrace::capture
                0x0000000000189580                std::backtrace::Backtrace::force_capture
                0x0000000000189b8c                std::backtrace::Backtrace::frames
                0x0000000000189c8c                <std::backtrace::Backtrace as core::fmt::Display>::fmt
                0x000000000018a75c                std::env::current_dir
                0x000000000018abe4                std::env::vars
                0x000000000018ac14                std::env::vars_os
                0x000000000018b3a4                <std::env::Vars as core::iter::traits::iterator::Iterator>::next
                0x000000000018b864                <std::env::Vars as core::iter::traits::iterator::Iterator>::size_hint
                0x000000000018b8cc                <std::env::Vars as core::fmt::Debug>::fmt
                0x000000000018b970                <std::env::VarsOs as core::iter::traits::iterator::Iterator>::next
                0x000000000018ba00                <std::env::VarsOs as core::iter::traits::iterator::Iterator>::size_hint
                0x000000000018ba68                <std::env::VarsOs as core::fmt::Debug>::fmt
                0x000000000018bae4                std::env::_var
                0x000000000018bcac                std::env::_var_os
                0x000000000018c058                <std::env::VarError as core::fmt::Display>::fmt
                0x000000000018c140                <std::env::SplitPaths as core::iter::traits::iterator::Iterator>::next
                0x000000000018c2e4                <std::env::SplitPaths as core::fmt::Debug>::fmt
                0x000000000018c338                <std::env::JoinPathsError as core::fmt::Display>::fmt
                0x000000000018c3b0                std::env::home_dir
                0x000000000018c7b8                std::env::temp_dir
                0x000000000018c918                std::env::current_exe
                0x000000000018cdb8                std::env::args
                0x000000000018cde8                std::env::args_os
                0x000000000018d224                <std::env::Args as core::iter::traits::iterator::Iterator>::next
                0x000000000018d454                <std::env::Args as core::iter::traits::iterator::Iterator>::size_hint
                0x000000000018d4bc                <std::env::Args as core::iter::traits::exact_size::ExactSizeIterator>::len
                0x000000000018d50c                <std::env::Args as core::iter::traits::exact_size::ExactSizeIterator>::is_empty
                0x000000000018d550                <std::env::Args as core::iter::traits::double_ended::DoubleEndedIterator>::next_back
                0x000000000018d77c                <std::env::Args as core::fmt::Debug>::fmt
                0x000000000018d7f8                <std::env::ArgsOs as core::iter::traits::iterator::Iterator>::next
                0x000000000018d888                <std::env::ArgsOs as core::iter::traits::iterator::Iterator>::size_hint
                0x000000000018d8f0                <std::env::ArgsOs as core::iter::traits::exact_size::ExactSizeIterator>::len
                0x000000000018d940                <std::env::ArgsOs as core::iter::traits::exact_size::ExactSizeIterator>::is_empty
                0x000000000018d984                <std::env::ArgsOs as core::iter::traits::double_ended::DoubleEndedIterator>::next_back
                0x000000000018da14                <std::env::ArgsOs as core::fmt::Debug>::fmt
                0x000000000018da90                std::ffi::os_str::OsString::into_boxed_os_str
                0x000000000018dc60                <std::ffi::os_str::OsString as core::fmt::Write>::write_str
                0x000000000018dd40                std::path::Path::into_path_buf
                0x000000000018dd40                std::ffi::os_str::OsStr::into_os_string
                0x000000000018dd84                std::ffi::os_str::OsStr::to_ascii_lowercase
                0x000000000018e14c                std::ffi::os_str::OsStr::to_ascii_uppercase
                0x000000000018e514                std::ffi::os_str::<impl core::convert::TryFrom<&std::ffi::os_str::OsStr> for &str>::try_from
                0x000000000018e514                std::sys::os_str::bytes::Slice::to_str
                0x000000000018e55c                <std::ffi::os_str::Display as core::fmt::Debug>::fmt
                0x000000000018e5b0                <std::ffi::os_str::Display as core::fmt::Display>::fmt
                0x000000000018e5f0                std::fs::read::inner
                0x000000000018ec98                std::fs::read_to_string::inner
                0x000000000018f3f8                std::fs::write::inner
                0x000000000018f6a0                std::fs::File::sync_all
                0x000000000018f748                std::fs::File::sync_data
                0x000000000018f7f0                std::fs::File::lock
                0x000000000018f878                std::fs::File::lock_shared
                0x000000000018f900                std::fs::File::try_lock
                0x000000000018fa18                std::fs::File::try_lock_shared
                0x000000000018fb30                std::fs::File::unlock
                0x000000000018fbb8                std::fs::File::set_len
                0x000000000018fcd0                std::fs::File::metadata
                0x000000000018fee8                std::os::unix::net::listener::UnixListener::try_clone
                0x000000000018fee8                std::os::unix::net::datagram::UnixDatagram::try_clone
                0x000000000018fee8                std::os::unix::net::stream::UnixStream::try_clone
                0x000000000018fee8                std::fs::File::try_clone
                0x000000000018ffac                std::fs::File::set_permissions
                0x0000000000190064                std::fs::File::set_times
                0x0000000000190154                <std::fs::File as core::fmt::Debug>::fmt
                0x0000000000190538                <&std::fs::File as std::io::Read>::read_to_end
                0x0000000000190758                <&std::fs::File as std::io::Read>::read_to_string
                0x0000000000190978                <&std::os::unix::net::stream::UnixStream as std::io::Write>::write
                0x0000000000190978                <&std::process::ChildStdin as std::io::Write>::write
                0x0000000000190978                <&std::fs::File as std::io::Write>::write
                0x0000000000190a24                <&std::os::unix::net::stream::UnixStream as std::io::Write>::write_vectored
                0x0000000000190a24                <&std::fs::File as std::io::Write>::write_vectored
                0x0000000000190a24                <&std::net::tcp::TcpStream as std::io::Write>::write_vectored
                0x0000000000190a24                <&std::process::ChildStdin as std::io::Write>::write_vectored
                0x0000000000190ad0                <&std::fs::File as std::io::Seek>::seek
                0x0000000000190b7c                <std::fs::File as std::io::Read>::read
                0x0000000000190c24                <std::fs::File as std::io::Read>::read_vectored
                0x0000000000190ccc                <std::fs::File as std::io::Read>::read_buf
                0x0000000000190db0                <std::fs::File as std::io::Read>::read_to_end
                0x0000000000190fcc                <std::fs::File as std::io::Read>::read_to_string
                0x0000000000191014                <std::process::ChildStdin as std::io::Write>::write
                0x0000000000191014                <std::os::unix::net::stream::UnixStream as std::io::Write>::write
                0x0000000000191014                <std::fs::File as std::io::Write>::write
                0x00000000001910bc                <std::os::unix::net::stream::UnixStream as std::io::Write>::write_vectored
                0x00000000001910bc                <std::fs::File as std::io::Write>::write_vectored
                0x00000000001910bc                <std::process::ChildStdin as std::io::Write>::write_vectored
                0x0000000000191164                <std::fs::File as std::io::Seek>::seek
                0x000000000019120c                std::fs::<impl std::io::Read for alloc::sync::Arc<std::fs::File>>::read
                0x00000000001912b8                std::fs::<impl std::io::Read for alloc::sync::Arc<std::fs::File>>::read_vectored
                0x0000000000191364                std::fs::<impl std::io::Read for alloc::sync::Arc<std::fs::File>>::read_buf
                0x000000000019144c                std::fs::<impl std::io::Read for alloc::sync::Arc<std::fs::File>>::read_to_end
                0x000000000019166c                std::fs::<impl std::io::Read for alloc::sync::Arc<std::fs::File>>::read_to_string
                0x00000000001916bc                std::fs::<impl std::io::Write for alloc::sync::Arc<std::fs::File>>::write
                0x0000000000191768                std::fs::<impl std::io::Write for alloc::sync::Arc<std::fs::File>>::write_vectored
                0x0000000000191814                std::fs::<impl std::io::Seek for alloc::sync::Arc<std::fs::File>>::seek
                0x00000000001918c0                std::fs::OpenOptions::_open
                0x0000000000191d9c                std::fs::Metadata::modified
                0x0000000000191e14                std::fs::Metadata::accessed
                0x0000000000191e8c                std::fs::Metadata::created
                0x0000000000191f68                <std::fs::Metadata as core::fmt::Debug>::fmt
                0x00000000001923e8                <std::fs::FileType as core::fmt::Debug>::fmt
                0x00000000001924cc                <std::fs::ReadDir as core::iter::traits::iterator::Iterator>::next
                0x0000000000192608                std::fs::DirEntry::path
                0x000000000019265c                std::fs::DirEntry::metadata
                0x0000000000192740                std::fs::DirEntry::file_type
                0x00000000001928a0                std::fs::DirEntry::file_name
                0x00000000001929f8                <std::fs::DirEntry as core::fmt::Debug>::fmt
                0x0000000000192b90                std::fs::DirBuilder::_create
                0x00000000001939b0                <std::hash::random::RandomState as core::fmt::Debug>::fmt
                0x0000000000193a04                std::io::buffered::bufreader::buffer::Buffer::backshift
                0x00000000001949e8                std::io::buffered::bufwriter::BufWriter<W>::flush_buf::BufGuard::remaining
                0x0000000000194a9c                <std::io::buffered::bufwriter::BufWriter<W>::flush_buf::BufGuard as core::ops::drop::Drop>::drop
                0x0000000000194bac                <std::io::buffered::bufwriter::WriterPanicked as core::fmt::Display>::fmt
                0x0000000000194c1c                <std::io::buffered::bufwriter::WriterPanicked as core::fmt::Debug>::fmt
                0x0000000000195748                <alloc::vec::Vec<u8> as std::io::copy::BufferedWriterSpec>::buffer_size
                0x0000000000195794                std::io::error::repr_bitpacked::Repr::new
                0x0000000000195970                <std::io::error::Error as core::fmt::Debug>::fmt
                0x00000000001959b0                <std::io::error::Error as core::convert::From<alloc::ffi::c_str::NulError>>::from
                0x0000000000195a3c                <std::io::error::Error as core::convert::From<alloc::collections::TryReserveError>>::from
                0x0000000000195a48                <std::io::error::ErrorKind as core::fmt::Display>::fmt
                0x0000000000195aa0                std::io::error::Error::new
                0x0000000000195d58                std::io::error::Error::new
                0x0000000000195e54                std::io::error::Error::_new
                0x0000000000196048                std::io::error::<impl core::fmt::Debug for std::io::error::repr_bitpacked::Repr>::fmt
                0x0000000000196484                <std::io::error::Error as core::fmt::Display>::fmt
                0x0000000000196818                <std::io::error::Error as core::error::Error>::description
                0x000000000019698c                <std::io::error::Error as core::error::Error>::cause
                0x0000000000196a10                <std::io::error::Error as core::error::Error>::source
                0x0000000000196f30                std::io::impls::<impl std::io::Write for core::io::borrowed_buf::BorrowedCursor>::write
                0x0000000000196fb8                <std::io::stdio::StdinRaw as std::io::Read>::read
                0x00000000001970a8                <std::io::stdio::StdinRaw as std::io::Read>::read_buf
                0x00000000001971c8                <std::io::stdio::StdinRaw as std::io::Read>::read_vectored
                0x00000000001972b8                <std::io::stdio::StdinRaw as std::io::Read>::read_to_end
                0x0000000000197320                <std::io::stdio::StdinRaw as std::io::Read>::read_to_string
                0x00000000001974f8                <std::io::stdio::StdoutRaw as std::io::Write>::write
                0x00000000001975e8                <std::io::stdio::StdoutRaw as std::io::Write>::write_vectored
                0x00000000001977c4                <std::io::stdio::StdoutRaw as std::io::Write>::write_all
                0x00000000001979e0                <std::io::stdio::StdoutRaw as std::io::Write>::write_all_vectored
                0x0000000000197f20                <std::io::stdio::StdoutRaw as std::io::Write>::write_fmt
                0x0000000000198264                <std::io::stdio::StderrRaw as std::io::Write>::write
                0x0000000000198354                <std::io::stdio::StderrRaw as std::io::Write>::write_vectored
                0x0000000000198530                <std::io::stdio::StdoutRaw as std::io::Write>::flush
                0x0000000000198530                <std::io::stdio::StderrRaw as std::io::Write>::flush
                0x0000000000198538                <std::io::stdio::StderrRaw as std::io::Write>::write_all
                0x0000000000198754                <std::io::stdio::StderrRaw as std::io::Write>::write_all_vectored
                0x00000000001987b4                <std::io::stdio::StderrRaw as std::io::Write>::write_fmt
                0x0000000000198814                std::io::stdio::stdin
                0x0000000000198884                std::io::stdio::Stdin::lock
                0x0000000000198990                std::io::stdio::Stdin::read_line
                0x0000000000198d18                std::io::stdio::Stdin::lines
                0x0000000000198e20                <std::io::stdio::Stdin as core::fmt::Debug>::fmt
                0x0000000000198e74                <std::io::stdio::Stdin as std::io::Read>::read
                0x0000000000199088                <std::io::stdio::Stdin as std::io::Read>::read_buf
                0x0000000000199284                <std::io::stdio::Stdin as std::io::Read>::read_vectored
                0x00000000001994b4                <std::io::stdio::Stdin as std::io::Read>::read_to_end
                0x00000000001996e4                <std::io::stdio::Stdin as std::io::Read>::read_to_string
                0x0000000000199940                <std::io::stdio::Stdin as std::io::Read>::read_exact
                0x0000000000199b9c                <std::io::stdio::Stdin as std::io::Read>::read_buf_exact
                0x0000000000199df0                <&std::io::stdio::Stdin as std::io::Read>::read
                0x000000000019a008                <&std::io::stdio::Stdin as std::io::Read>::read_buf
                0x000000000019a208                <&std::io::stdio::Stdin as std::io::Read>::read_vectored
                0x000000000019a43c                <&std::io::stdio::Stdin as std::io::Read>::read_to_end
                0x000000000019a670                <&std::io::stdio::Stdin as std::io::Read>::read_to_string
                0x000000000019a8d0                <&std::io::stdio::Stdin as std::io::Read>::read_exact
                0x000000000019ab30                <&std::io::stdio::Stdin as std::io::Read>::read_buf_exact
                0x000000000019ad88                <std::io::stdio::StdinLock as std::io::Read>::read
                0x000000000019add4                <std::io::stdio::StdinLock as std::io::Read>::read_buf
                0x000000000019ae18                <std::io::stdio::StdinLock as std::io::Read>::read_vectored
                0x000000000019b354                <std::io::stdio::StdinLock as std::io::Read>::read_to_end
                0x000000000019b398                <std::io::stdio::StdinLock as std::io::Read>::read_to_string
                0x000000000019b81c                <std::io::stdio::StdinLock as std::io::Read>::read_exact
                0x000000000019bcac                <std::io::stdio::StdinLock as std::io::Read>::read_buf_exact
                0x000000000019c0d0                <std::io::stdio::StdinLock as std::io::BufRead>::fill_buf
                0x000000000019c27c                <std::io::stdio::StdinLock as std::io::BufRead>::consume
                0x000000000019c2d4                <std::io::stdio::StdinLock as std::io::BufRead>::read_until
                0x000000000019c320                <std::io::stdio::StdinLock as std::io::BufRead>::read_line
                0x000000000019c4dc                <std::io::stdio::StdinLock as core::fmt::Debug>::fmt
                0x000000000019c530                std::io::stdio::stdout
                0x000000000019c5a0                <std::io::stdio::Stdout as core::fmt::Debug>::fmt
                0x000000000019c5f4                <std::io::stdio::Stdout as std::io::Write>::write
                0x000000000019c64c                <std::io::stdio::Stdout as std::io::Write>::write_vectored
                0x000000000019c6a4                <std::io::stdio::Stdout as std::io::Write>::flush
                0x000000000019c6e4                <std::io::stdio::Stdout as std::io::Write>::write_all
                0x000000000019c73c                <std::io::stdio::Stdout as std::io::Write>::write_all_vectored
                0x000000000019c794                <std::io::stdio::Stdout as std::io::Write>::write_fmt
                0x000000000019c7dc                <&std::io::stdio::Stdout as std::io::Write>::write
                0x000000000019cb7c                <&std::io::stdio::Stdout as std::io::Write>::write_vectored
                0x000000000019cf9c                <&std::io::stdio::Stdout as std::io::Write>::flush
                0x000000000019d39c                <&std::io::stdio::Stdout as std::io::Write>::write_all
                0x000000000019d734                <&std::io::stdio::Stdout as std::io::Write>::write_all_vectored
                0x000000000019dacc                <&std::io::stdio::Stdout as std::io::Write>::write_fmt
                0x000000000019e124                <std::io::stdio::StdoutLock as std::io::Write>::write
                0x000000000019e74c                <std::io::stdio::StdoutLock as std::io::Write>::write_vectored
                0x000000000019e874                <std::io::stdio::StdoutLock as std::io::Write>::flush
                0x000000000019e984                <std::io::stdio::StdoutLock as std::io::Write>::write_all
                0x000000000019efd4                <std::io::stdio::StdoutLock as std::io::Write>::write_all_vectored
                0x000000000019f7c8                <std::io::stdio::StdoutLock as core::fmt::Debug>::fmt
                0x000000000019f81c                std::io::stdio::Stdout::lock
                0x000000000019f81c                std::io::stdio::Stderr::lock
                0x000000000019fa98                <std::io::stdio::Stderr as core::fmt::Debug>::fmt
                0x000000000019faec                <std::io::stdio::Stderr as std::io::Write>::write
                0x000000000019fb44                <std::io::stdio::Stderr as std::io::Write>::write_vectored
                0x000000000019fb9c                <std::io::stdio::Stderr as std::io::Write>::flush
                0x000000000019fbdc                <std::io::stdio::Stderr as std::io::Write>::write_all
                0x000000000019fc34                <std::io::stdio::Stderr as std::io::Write>::write_all_vectored
                0x000000000019fc8c                <std::io::stdio::Stderr as std::io::Write>::write_fmt
                0x000000000019fcd4                <&std::io::stdio::Stderr as std::io::Write>::write
                0x00000000001a0154                <&std::io::stdio::Stderr as std::io::Write>::write_vectored
                0x00000000001a06a8                <&std::io::stdio::Stderr as std::io::Write>::flush
                0x00000000001a0a38                <&std::io::stdio::Stderr as std::io::Write>::write_all
                0x00000000001a0dd0                <&std::io::stdio::Stderr as std::io::Write>::write_all_vectored
                0x00000000001a11fc                <&std::io::stdio::Stderr as std::io::Write>::write_fmt
                0x00000000001a1854                <std::io::stdio::StderrLock as std::io::Write>::write
                0x00000000001a19bc                <std::io::stdio::StderrLock as std::io::Write>::write_vectored
                0x00000000001a1c34                <std::io::stdio::StderrLock as std::io::Write>::flush
                0x00000000001a1ca0                <std::io::stdio::StderrLock as std::io::Write>::write_all
                0x00000000001a1f6c                <std::io::stdio::StderrLock as std::io::Write>::write_all_vectored
                0x00000000001a207c                <std::io::stdio::StderrLock as core::fmt::Debug>::fmt
                0x00000000001a20d0                std::io::stdio::set_output_capture
                0x00000000001a22f4                std::io::stdio::try_set_output_capture
                0x00000000001a2aa4                std::io::stdio::attempt_print_to_stderr
                0x00000000001a2cf8                std::io::stdio::_print
                0x00000000001a2ec4                std::io::stdio::_eprint
                0x00000000001a3034                <std::io::util::Repeat as std::io::Read>::read_buf
                0x00000000001a30f8                <std::io::util::Repeat as std::io::Read>::read_to_end
                0x00000000001a30f8                <std::io::util::Repeat as std::io::Read>::read_to_string
                0x00000000001a3108                <std::io::util::Repeat as core::fmt::Debug>::fmt
                0x00000000001a4e38                std::io::IoSliceMut::into_slice
                0x00000000001a4e38                std::io::IoSlice::as_slice
                0x00000000001a4e3c                <std::io::IoSliceMut as core::fmt::Debug>::fmt
                0x00000000001a4e3c                <std::io::IoSlice as core::fmt::Debug>::fmt
                0x00000000001a766c                std::net::socket_addr::<impl std::sys_common::FromInner<libc::unix::linux_like::sockaddr_in> for core::net::socket_addr::SocketAddrV4>::from_inner
                0x00000000001a76b4                std::net::socket_addr::<impl std::sys_common::FromInner<libc::unix::linux_like::sockaddr_in6> for core::net::socket_addr::SocketAddrV6>::from_inner
                0x00000000001a7718                std::net::socket_addr::<impl std::sys_common::IntoInner<libc::unix::linux_like::sockaddr_in> for core::net::socket_addr::SocketAddrV4>::into_inner
                0x00000000001a7778                std::net::socket_addr::<impl std::sys_common::IntoInner<libc::unix::linux_like::sockaddr_in6> for core::net::socket_addr::SocketAddrV6>::into_inner
                0x00000000001a7e60                <(&str,u16) as std::net::socket_addr::ToSocketAddrs>::to_socket_addrs
                0x00000000001a824c                <(alloc::string::String,u16) as std::net::socket_addr::ToSocketAddrs>::to_socket_addrs
                0x00000000001a82a8                <str as std::net::socket_addr::ToSocketAddrs>::to_socket_addrs
                0x00000000001a8464                <alloc::string::String as std::net::socket_addr::ToSocketAddrs>::to_socket_addrs
                0x00000000001a84a4                std::net::tcp::TcpStream::connect_timeout
                0x00000000001a8fd8                std::net::tcp::TcpStream::peer_addr
                0x00000000001a9018                std::net::udp::UdpSocket::read_timeout
                0x00000000001a9018                std::net::tcp::TcpStream::read_timeout
                0x00000000001a9200                std::net::tcp::TcpStream::write_timeout
                0x00000000001a9200                std::net::udp::UdpSocket::write_timeout
                0x00000000001a93e8                std::net::tcp::TcpStream::set_linger
                0x00000000001a94c8                std::net::tcp::TcpStream::linger
                0x00000000001a95d8                std::net::tcp::TcpStream::set_nodelay
                0x00000000001a9698                std::net::tcp::TcpStream::nodelay
                0x00000000001a977c                <std::net::tcp::TcpStream as std::io::Read>::read_buf
                0x00000000001a9858                <std::process::ChildStderr as std::io::Read>::read_vectored
                0x00000000001a9858                <std::process::ChildStdout as std::io::Read>::read_vectored
                0x00000000001a9858                <std::net::tcp::TcpStream as std::io::Read>::read_vectored
                0x00000000001a9900                <std::net::tcp::TcpStream as std::io::Write>::write_vectored
                0x00000000001a99a8                <&std::net::tcp::TcpStream as std::io::Read>::read
                0x00000000001a99a8                <&std::os::unix::net::stream::UnixStream as std::io::Read>::read
                0x00000000001a9a50                <&std::net::tcp::TcpStream as std::io::Read>::read_buf
                0x00000000001a9b30                <&std::os::unix::net::stream::UnixStream as std::io::Read>::read_vectored
                0x00000000001a9b30                <&std::net::tcp::TcpStream as std::io::Read>::read_vectored
                0x00000000001a9bdc                <&std::net::tcp::TcpStream as std::io::Write>::write
                0x00000000001a9c84                <std::net::tcp::TcpStream as core::fmt::Debug>::fmt
                0x00000000001a9cc4                std::net::tcp::TcpStream::local_addr
                0x00000000001a9cc4                std::net::udp::UdpSocket::local_addr
                0x00000000001a9cc4                std::net::tcp::TcpListener::local_addr
                0x00000000001a9d04                std::net::tcp::TcpListener::try_clone
                0x00000000001a9d04                std::net::udp::UdpSocket::try_clone
                0x00000000001a9d04                std::net::tcp::TcpStream::try_clone
                0x00000000001a9dc8                std::net::tcp::TcpListener::accept
                0x00000000001aa0c8                std::net::udp::UdpSocket::set_ttl
                0x00000000001aa0c8                std::net::tcp::TcpListener::set_ttl
                0x00000000001aa0c8                std::net::tcp::TcpStream::set_ttl
                0x00000000001aa188                std::net::tcp::TcpListener::ttl
                0x00000000001aa188                std::net::udp::UdpSocket::ttl
                0x00000000001aa188                std::net::tcp::TcpStream::ttl
                0x00000000001aa25c                std::net::tcp::TcpListener::set_only_v6
                0x00000000001aa31c                std::net::tcp::TcpListener::only_v6
                0x00000000001aa400                <std::net::tcp::Incoming as core::iter::traits::iterator::Iterator>::next
                0x00000000001aa464                <std::net::tcp::IntoIncoming as core::iter::traits::iterator::Iterator>::next
                0x00000000001aa4c8                <std::net::tcp::TcpListener as core::fmt::Debug>::fmt
                0x00000000001aa508                std::net::udp::UdpSocket::recv_from
                0x00000000001aa564                std::net::udp::UdpSocket::peek_from
                0x00000000001aa5c0                std::net::udp::UdpSocket::peer_addr
                0x00000000001aa868                std::net::udp::UdpSocket::set_broadcast
                0x00000000001aa928                std::net::udp::UdpSocket::broadcast
                0x00000000001aaa0c                std::net::udp::UdpSocket::set_multicast_loop_v4
                0x00000000001aaacc                std::net::udp::UdpSocket::multicast_loop_v4
                0x00000000001aabb0                std::net::udp::UdpSocket::set_multicast_ttl_v4
                0x00000000001aac70                std::net::udp::UdpSocket::multicast_ttl_v4
                0x00000000001aad44                std::net::udp::UdpSocket::set_multicast_loop_v6
                0x00000000001aae04                std::net::udp::UdpSocket::multicast_loop_v6
                0x00000000001aaee8                std::net::udp::UdpSocket::join_multicast_v4
                0x00000000001aafc0                std::net::udp::UdpSocket::join_multicast_v6
                0x00000000001ab094                std::net::udp::UdpSocket::leave_multicast_v4
                0x00000000001ab16c                std::net::udp::UdpSocket::leave_multicast_v6
                0x00000000001ab240                <std::net::tcp::TcpStream as std::io::Write>::write
                0x00000000001ab240                std::net::udp::UdpSocket::send
                0x00000000001ab2e4                <std::net::udp::UdpSocket as core::fmt::Debug>::fmt
                0x00000000001ab324                <std::fs::File as std::os::unix::fs::FileExt>::read_at
                0x00000000001ab3dc                <std::fs::File as std::os::unix::fs::FileExt>::read_vectored_at
                0x00000000001ab494                <std::fs::File as std::os::unix::fs::FileExt>::write_at
                0x00000000001ab54c                <std::fs::File as std::os::unix::fs::FileExt>::write_vectored_at
                0x00000000001ab604                <std::fs::DirEntry as std::os::unix::fs::DirEntryExt2>::file_name_ref
                0x00000000001ab640                std::os::unix::net::addr::sockaddr_un
                0x00000000001ab89c                std::os::unix::net::addr::SocketAddr::from_parts
                0x00000000001ab99c                std::os::unix::net::addr::SocketAddr::is_unnamed
                0x00000000001abad4                std::os::unix::net::addr::SocketAddr::as_pathname
                0x00000000001abc14                <std::os::unix::net::addr::SocketAddr as std::os::net::linux_ext::addr::SocketAddrExt>::as_abstract_name
                0x00000000001abd78                <std::os::unix::net::addr::SocketAddr as core::fmt::Debug>::fmt
                0x00000000001abfb8                std::os::unix::net::ancillary::send_vectored_with_ancillary_to
                0x00000000001ac3f8                <std::os::unix::net::ancillary::ScmRights as core::iter::traits::iterator::Iterator>::next
                0x00000000001ac480                <std::os::unix::net::ancillary::ScmCredentials as core::iter::traits::iterator::Iterator>::next
                0x00000000001ac524                <std::os::unix::net::ancillary::Messages as core::iter::traits::iterator::Iterator>::next
                0x00000000001ac76c                std::os::unix::net::ancillary::SocketAncillary::messages
                0x00000000001ac810                std::os::unix::net::ancillary::SocketAncillary::add_fds
                0x00000000001acab4                std::os::unix::net::ancillary::SocketAncillary::add_creds
                0x00000000001acd68                <std::os::unix::net::datagram::UnixDatagram as core::fmt::Debug>::fmt
                0x00000000001ad4d4                std::os::unix::net::datagram::UnixDatagram::bind_addr
                0x00000000001ad634                std::os::unix::net::datagram::UnixDatagram::unbound
                0x00000000001ad6f8                std::os::unix::net::datagram::UnixDatagram::pair
                0x00000000001ad798                std::os::unix::net::datagram::UnixDatagram::connect_addr
                0x00000000001ad82c                std::os::unix::net::datagram::UnixDatagram::recv_from
                0x00000000001ada58                <std::net::tcp::TcpStream as std::io::Read>::read
                0x00000000001ada58                std::net::udp::UdpSocket::recv
                0x00000000001ada58                std::os::unix::net::datagram::UnixDatagram::recv
                0x00000000001adafc                std::os::unix::net::datagram::UnixDatagram::recv_vectored_with_ancillary_from
                0x00000000001adddc                std::os::unix::net::datagram::UnixDatagram::recv_vectored_with_ancillary
                0x00000000001ae010                std::os::unix::net::datagram::UnixDatagram::send_to_addr
                0x00000000001ae0c8                std::os::unix::net::datagram::UnixDatagram::send
                0x00000000001ae170                std::os::unix::net::datagram::UnixDatagram::peek_from
                0x00000000001ae39c                <std::os::unix::net::listener::UnixListener as core::fmt::Debug>::fmt
                0x00000000001ae7cc                std::os::unix::net::listener::UnixListener::bind_addr
                0x00000000001ae964                std::os::unix::net::listener::UnixListener::accept
                0x00000000001aeb90                <std::os::unix::net::listener::Incoming as core::iter::traits::iterator::Iterator>::next
                0x00000000001aed6c                <std::os::unix::net::stream::UnixStream as core::fmt::Debug>::fmt
                0x00000000001af4d8                std::os::unix::net::stream::UnixStream::connect_addr
                0x00000000001af638                std::os::unix::net::stream::UnixStream::pair
                0x00000000001af6d8                std::os::unix::net::stream::UnixStream::local_addr
                0x00000000001af6d8                std::os::unix::net::listener::UnixListener::local_addr
                0x00000000001af6d8                std::os::unix::net::datagram::UnixDatagram::local_addr
                0x00000000001af8ac                std::os::unix::net::datagram::UnixDatagram::peer_addr
                0x00000000001af8ac                std::os::unix::net::stream::UnixStream::peer_addr
                0x00000000001afa80                std::os::unix::net::stream::UnixStream::peer_cred
                0x00000000001afb94                std::os::unix::net::datagram::UnixDatagram::set_read_timeout
                0x00000000001afb94                std::os::unix::net::stream::UnixStream::set_read_timeout
                0x00000000001afb94                std::net::udp::UdpSocket::set_read_timeout
                0x00000000001afb94                std::net::tcp::TcpStream::set_read_timeout
                0x00000000001afd30                std::net::udp::UdpSocket::set_write_timeout
                0x00000000001afd30                std::net::tcp::TcpStream::set_write_timeout
                0x00000000001afd30                std::os::unix::net::stream::UnixStream::set_write_timeout
                0x00000000001afd30                std::os::unix::net::datagram::UnixDatagram::set_write_timeout
                0x00000000001afecc                std::os::unix::net::stream::UnixStream::read_timeout
                0x00000000001afecc                std::os::unix::net::datagram::UnixDatagram::read_timeout
                0x00000000001b00b4                std::os::unix::net::stream::UnixStream::write_timeout
                0x00000000001b00b4                std::os::unix::net::datagram::UnixDatagram::write_timeout
                0x00000000001b029c                std::os::unix::net::listener::UnixListener::set_nonblocking
                0x00000000001b029c                std::os::unix::net::stream::UnixStream::set_nonblocking
                0x00000000001b029c                std::net::udp::UdpSocket::set_nonblocking
                0x00000000001b029c                std::os::unix::net::datagram::UnixDatagram::set_nonblocking
                0x00000000001b029c                std::net::tcp::TcpStream::set_nonblocking
                0x00000000001b029c                std::net::tcp::TcpListener::set_nonblocking
                0x00000000001b0354                std::os::unix::net::stream::UnixStream::set_mark
                0x00000000001b0354                std::os::unix::net::datagram::UnixDatagram::set_mark
                0x00000000001b0414                std::os::unix::net::listener::UnixListener::take_error
                0x00000000001b0414                std::os::unix::net::stream::UnixStream::take_error
                0x00000000001b0414                std::net::tcp::TcpListener::take_error
                0x00000000001b0414                std::net::udp::UdpSocket::take_error
                0x00000000001b0414                std::os::unix::net::datagram::UnixDatagram::take_error
                0x00000000001b0414                std::net::tcp::TcpStream::take_error
                0x00000000001b0518                std::os::unix::net::datagram::UnixDatagram::shutdown
                0x00000000001b0518                std::net::tcp::TcpStream::shutdown
                0x00000000001b0518                std::os::unix::net::stream::UnixStream::shutdown
                0x00000000001b05a8                std::net::tcp::TcpStream::peek
                0x00000000001b05a8                std::os::unix::net::stream::UnixStream::peek
                0x00000000001b05a8                std::os::unix::net::datagram::UnixDatagram::peek
                0x00000000001b05a8                std::net::udp::UdpSocket::peek
                0x00000000001b064c                std::os::unix::net::stream::UnixStream::recv_vectored_with_ancillary
                0x00000000001b07bc                std::os::unix::net::stream::UnixStream::send_vectored_with_ancillary
                0x00000000001b07bc                std::os::unix::net::datagram::UnixDatagram::send_vectored_with_ancillary
                0x00000000001b091c                <std::os::unix::net::stream::UnixStream as std::io::Read>::read
                0x00000000001b09c0                <std::os::unix::net::stream::UnixStream as std::io::Read>::read_buf
                0x00000000001b0a9c                <std::os::unix::net::stream::UnixStream as std::io::Read>::read_vectored
                0x00000000001b0b44                <&std::os::unix::net::stream::UnixStream as std::io::Read>::read_buf
                0x00000000001b0c24                <std::process::Command as std::os::unix::process::CommandExt>::groups
                0x00000000001b0e34                <std::process::Command as std::os::unix::process::CommandExt>::exec
                0x00000000001b170c                <std::process::ExitStatusError as std::os::unix::process::ExitStatusExt>::from_raw
                0x00000000001b17a4                std::os::unix::process::parent_id
                0x00000000001b17cc                std::os::linux::process::PidFd::kill
                0x00000000001b1860                std::os::linux::process::PidFd::wait
                0x00000000001b1928                std::os::linux::process::PidFd::try_wait
                0x00000000001b19d4                std::os::fd::owned::OwnedFd::try_clone
                0x00000000001b1a98                std::os::fd::owned::BorrowedFd::try_clone_to_owned
                0x00000000001b1b5c                <std::os::fd::owned::BorrowedFd as core::fmt::Debug>::fmt
                0x00000000001b1bd8                <std::os::fd::owned::OwnedFd as core::fmt::Debug>::fmt
                0x00000000001b1c54                <std::os::unix::net::stream::UnixStream as std::os::net::linux_ext::socket::UnixSocketExt>::passcred
                0x00000000001b1c54                <std::os::unix::net::datagram::UnixDatagram as std::os::net::linux_ext::socket::UnixSocketExt>::passcred
                0x00000000001b1d38                <std::os::unix::net::datagram::UnixDatagram as std::os::net::linux_ext::socket::UnixSocketExt>::set_passcred
                0x00000000001b1d38                <std::os::unix::net::stream::UnixStream as std::os::net::linux_ext::socket::UnixSocketExt>::set_passcred
                0x00000000001b1df8                <std::net::tcp::TcpStream as std::os::net::linux_ext::tcp::TcpStreamExt>::set_quickack
                0x00000000001b1eb8                <std::net::tcp::TcpStream as std::os::net::linux_ext::tcp::TcpStreamExt>::quickack
                0x00000000001b1f9c                <std::net::tcp::TcpStream as std::os::net::linux_ext::tcp::TcpStreamExt>::set_deferaccept
                0x00000000001b205c                <std::net::tcp::TcpStream as std::os::net::linux_ext::tcp::TcpStreamExt>::deferaccept
                0x00000000001b2130                <std::panic::PanicHookInfo as core::fmt::Display>::fmt
                0x00000000001b2370                std::panic::resume_unwind
                0x00000000001b23a8                std::panic::always_abort
                0x00000000001b23a8                std::panicking::panic_count::set_always_abort
                0x00000000001b23e0                <std::path::Components as core::fmt::Debug>::fmt
                0x00000000001b245c                <<std::path::Components as core::fmt::Debug>::fmt::DebugHelper as core::fmt::Debug>::fmt
                0x00000000001b2964                std::path::Components::as_path
                0x00000000001b393c                <std::path::Iter as core::fmt::Debug>::fmt
                0x00000000001b39b8                <<std::path::Iter as core::fmt::Debug>::fmt::DebugHelper as core::fmt::Debug>::fmt
                0x00000000001b3bec                <std::path::Components as core::iter::traits::iterator::Iterator>::next
                0x00000000001b4360                <std::path::Components as core::iter::traits::double_ended::DoubleEndedIterator>::next_back
                0x00000000001b4a28                std::path::compare_components
                0x00000000001b5264                std::path::PathBuf::_push
                0x00000000001b54b0                std::path::PathBuf::pop
                0x00000000001b574c                std::path::PathBuf::_set_file_name
                0x00000000001b5a7c                std::path::PathBuf::_set_extension
                0x00000000001b621c                std::path::PathBuf::_add_extension
                0x00000000001b6718                std::path::<impl core::convert::From<&std::path::Path> for alloc::boxed::Box<std::path::Path>>::from
                0x00000000001b6864                std::path::<impl core::convert::From<&mut std::path::Path> for alloc::boxed::Box<std::path::Path>>::from
                0x00000000001b69b0                <std::ffi::os_str::OsString as core::fmt::Debug>::fmt
                0x00000000001b69b0                <std::sys::os_str::bytes::Buf as core::fmt::Debug>::fmt
                0x00000000001b69b0                <std::path::PathBuf as core::fmt::Debug>::fmt
                0x00000000001b6a04                std::path::Path::is_absolute
                0x00000000001b6a84                std::path::Path::parent
                0x00000000001b6bf4                std::path::Path::file_name
                0x00000000001b6cd0                std::path::Path::_strip_prefix
                0x00000000001b70c8                std::path::Path::_starts_with
                0x00000000001b7424                std::path::Path::_ends_with
                0x00000000001b7788                std::path::Path::file_stem
                0x00000000001b7a08                std::path::Path::file_prefix
                0x00000000001b7d70                std::path::Path::extension
                0x00000000001b7f94                std::path::Path::_join
                0x00000000001b8330                std::path::Path::_with_file_name
                0x00000000001b854c                std::path::Path::_with_extension
                0x00000000001b8a8c                std::path::Path::components
                0x00000000001b8b48                std::path::Path::is_file
                0x00000000001b8dac                std::path::Path::is_dir
                0x00000000001b9010                std::path::Path::is_symlink
                0x00000000001b9274                <std::path::Path as core::fmt::Debug>::fmt
                0x00000000001b9274                <std::ffi::os_str::OsStr as core::fmt::Debug>::fmt
                0x00000000001b9274                <std::sys::os_str::bytes::Slice as core::fmt::Debug>::fmt
                0x00000000001b92c8                <std::path::Display as core::fmt::Debug>::fmt
                0x00000000001b931c                <std::path::Display as core::fmt::Display>::fmt
                0x00000000001b935c                <std::path::StripPrefixError as core::fmt::Display>::fmt
                0x00000000001b9398                std::pipe::PipeWriter::try_clone
                0x00000000001b9398                std::pipe::PipeReader::try_clone
                0x00000000001b945c                <&std::sys::pal::unix::fd::FileDesc as std::io::Read>::read
                0x00000000001b945c                <&std::pipe::PipeReader as std::io::Read>::read
                0x00000000001b9508                <&std::pipe::PipeReader as std::io::Read>::read_vectored
                0x00000000001b9508                <&std::sys::pal::unix::fd::FileDesc as std::io::Read>::read_vectored
                0x00000000001b95b4                <&std::pipe::PipeReader as std::io::Read>::read_to_end
                0x00000000001b95f4                <&std::sys::pal::unix::fd::FileDesc as std::io::Read>::read_buf
                0x00000000001b95f4                <&std::pipe::PipeReader as std::io::Read>::read_buf
                0x00000000001b96dc                <std::process::ChildStdout as std::io::Read>::read_to_end
                0x00000000001b96dc                <std::process::ChildStderr as std::io::Read>::read_to_end
                0x00000000001b96dc                <std::pipe::PipeReader as std::io::Read>::read_to_end
                0x00000000001b971c                <&std::pipe::PipeWriter as std::io::Write>::write
                0x00000000001b97c8                <&std::pipe::PipeWriter as std::io::Write>::write_vectored
                0x00000000001b9874                <std::pipe::PipeWriter as std::io::Write>::write
                0x00000000001b991c                <std::pipe::PipeWriter as std::io::Write>::write_vectored
                0x00000000001b99c4                <std::process::Child as std::sys_common::FromInner<(std::sys::pal::unix::process::process_inner::Process,std::sys::pal::unix::process::process_common::StdioPipes)>>::from_inner
                0x00000000001b9a14                <std::process::Child as std::sys_common::IntoInner<std::sys::pal::unix::process::process_inner::Process>>::into_inner
                0x00000000001b9b3c                <std::process::Child as core::fmt::Debug>::fmt
                0x00000000001b9bf0                <std::process::ChildStdin as core::fmt::Debug>::fmt
                0x00000000001b9c44                <std::process::ChildStdout as core::fmt::Debug>::fmt
                0x00000000001b9c98                <std::process::ChildStderr as std::io::Read>::read
                0x00000000001b9c98                <std::process::ChildStdout as std::io::Read>::read
                0x00000000001b9d40                <std::process::ChildStdout as std::io::Read>::read_buf
                0x00000000001b9d40                <std::process::ChildStderr as std::io::Read>::read_buf
                0x00000000001b9e24                <std::process::ChildStderr as core::fmt::Debug>::fmt
                0x00000000001b9e78                std::process::Command::env_clear
                0x00000000001b9ed8                std::process::Command::spawn
                0x00000000001b9fb8                std::process::Command::output
                0x00000000001ba89c                std::process::Command::status
                0x00000000001bacd0                std::process::Command::get_program
                0x00000000001bad0c                std::process::Command::get_args
                0x00000000001bad54                std::process::Command::get_current_dir
                0x00000000001bad90                <std::process::Command as core::fmt::Debug>::fmt
                0x00000000001badd0                <std::process::CommandArgs as core::iter::traits::iterator::Iterator>::next
                0x00000000001bae54                <std::process::CommandArgs as core::iter::traits::iterator::Iterator>::size_hint
                0x00000000001baeac                <std::process::CommandArgs as core::iter::traits::exact_size::ExactSizeIterator>::len
                0x00000000001baeec                <std::process::Output as core::fmt::Debug>::fmt
                0x00000000001bb00c                <std::process::Stdio as core::fmt::Debug>::fmt
                0x00000000001bb060                std::process::ExitStatus::exit_ok
                0x00000000001bb068                <std::process::ExitStatus as core::fmt::Display>::fmt
                0x00000000001bb0a8                std::process::ExitStatusError::code
                0x00000000001bb190                std::process::ExitStatusError::code_nonzero
                0x00000000001bb270                <std::process::ExitStatusError as core::fmt::Display>::fmt
                0x00000000001bb2f0                std::process::ExitCode::exit_process
                0x00000000001bb31c                std::process::Child::kill
                0x00000000001bb460                std::process::Child::wait
                0x00000000001bb724                std::process::Child::try_wait
                0x00000000001bb988                std::process::Child::wait_with_output
                0x00000000001bc1ac                std::process::exit
                0x00000000001bc1dc                std::process::id
                0x00000000001bc204                <std::random::DefaultRandomSource as core::random::RandomSource>::fill_bytes
                0x00000000001bc248                <std::sync::mpmc::zero::ZeroToken as core::fmt::Debug>::fmt
                0x00000000001bc35c                <std::sync::mpsc::RecvError as core::fmt::Display>::fmt
                0x00000000001bc398                <std::sync::mpsc::TryRecvError as core::fmt::Display>::fmt
                0x00000000001bc3fc                <std::sync::mpsc::RecvTimeoutError as core::fmt::Display>::fmt
                0x00000000001bc464                std::sync::poison::condvar::Condvar::notify_one
                0x00000000001bc4ac                std::sync::poison::condvar::Condvar::notify_all
                0x00000000001bc4f4                <std::sync::poison::condvar::Condvar as core::fmt::Debug>::fmt
                0x00000000001bd170                std::sync::poison::once::Once::wait
                0x00000000001bd1e4                std::sync::poison::once::Once::wait_force
                0x00000000001bd258                <std::sync::poison::once::Once as core::fmt::Debug>::fmt
                0x00000000001bd2ac                <std::sync::poison::once::OnceState as core::fmt::Debug>::fmt
                0x00000000001bd384                <std::sync::barrier::Barrier as core::fmt::Debug>::fmt
                0x00000000001bd3d8                std::sync::barrier::Barrier::wait
                0x00000000001bda20                <std::sync::barrier::BarrierWaitResult as core::fmt::Debug>::fmt
                0x00000000001bdaa4                std::time::Instant::now
                0x00000000001bdad0                std::time::Instant::saturating_duration_since
                0x00000000001bdad0                std::time::Instant::duration_since
                0x00000000001bdb4c                std::time::Instant::checked_duration_since
                0x00000000001bdbcc                std::time::Instant::elapsed
                0x00000000001bdc50                <std::time::Instant as core::ops::arith::Add<core::time::Duration>>::add
                0x00000000001bdd88                <std::time::Instant as core::ops::arith::AddAssign<core::time::Duration>>::add_assign
                0x00000000001bdec4                <std::time::Instant as core::ops::arith::Sub<core::time::Duration>>::sub
                0x00000000001bdff0                <std::time::Instant as core::ops::arith::SubAssign<core::time::Duration>>::sub_assign
                0x00000000001be120                <std::time::Instant as core::ops::arith::Sub>::sub
                0x00000000001be1b0                <std::time::Instant as core::fmt::Debug>::fmt
                0x00000000001be248                std::time::SystemTime::now
                0x00000000001be274                std::time::SystemTime::duration_since
                0x00000000001be2ec                std::time::SystemTime::elapsed
                0x00000000001be36c                std::time::Instant::checked_add
                0x00000000001be36c                std::time::SystemTime::checked_add
                0x00000000001be484                std::time::SystemTime::checked_sub
                0x00000000001be484                std::time::Instant::checked_sub
                0x00000000001be58c                <std::time::SystemTime as core::ops::arith::Add<core::time::Duration>>::add
                0x00000000001be6c4                <std::time::SystemTime as core::ops::arith::AddAssign<core::time::Duration>>::add_assign
                0x00000000001be800                <std::time::SystemTime as core::ops::arith::Sub<core::time::Duration>>::sub
                0x00000000001be92c                <std::time::SystemTime as core::ops::arith::SubAssign<core::time::Duration>>::sub_assign
                0x00000000001bea5c                <std::time::SystemTime as core::fmt::Debug>::fmt
                0x00000000001beaf4                <std::time::SystemTimeError as core::fmt::Display>::fmt
                0x00000000001beb34                std::sys::alloc::realloc_fallback
                0x00000000001bef7c                std::sys::backtrace::lock
                0x00000000001bf0e4                <std::sys::backtrace::BacktraceLock::print::DisplayBacktrace as core::fmt::Display>::fmt
                0x00000000001bfadc                std::sys_common::fs::exists
                0x00000000001bfecc                <std::sys_common::process::CommandEnv as core::fmt::Debug>::fmt
                0x00000000001bff68                std::sys_common::process::CommandEnv::set
                0x00000000001c0300                std::sys_common::process::CommandEnv::remove
                0x00000000001c0be0                <std::sys_common::process::CommandEnvs as core::iter::traits::iterator::Iterator>::next
                0x00000000001c0c84                <std::sys_common::wstr::WStrUnits as core::iter::traits::iterator::Iterator>::next
                0x00000000001c0cf4                <std::sys_common::wtf8::Wtf8Buf as core::ops::deref::DerefMut>::deref_mut
                0x00000000001c0cf4                <std::sys_common::wtf8::Wtf8Buf as core::ops::deref::Deref>::deref
                0x00000000001c0d24                std::sys_common::wtf8::Wtf8Buf::push_code_point_unchecked
                0x00000000001c0f7c                <std::sys_common::wtf8::Wtf8 as core::fmt::Debug>::fmt
                0x00000000001c1a1c                <std::sys_common::wtf8::Wtf8 as core::fmt::Display>::fmt
                0x00000000001c1f14                std::sys_common::wtf8::slice_error_fail
                0x00000000001c200c                std::alloc::set_alloc_error_hook
                0x00000000001c201c                std::alloc::take_alloc_error_hook
                0x00000000001c2350                __rdl_alloc
                0x00000000001c2418                __rdl_dealloc
                0x00000000001c2450                __rdl_realloc
                0x00000000001c257c                __rdl_alloc_zeroed
                0x00000000001c2680                __rust_drop_panic
                0x00000000001c28d8                __rust_foreign_exception
                0x00000000001c2b30                std::panicking::set_hook
                0x00000000001c2f4c                std::panicking::take_hook
                0x00000000001c3210                std::panicking::default_hook
                0x00000000001c3e6c                std::panicking::panic_count::increase
                0x00000000001c3f44                std::panicking::panic_count::finished_panic_hook
                0x00000000001c3f68                std::panicking::panic_count::decrease
                0x00000000001c3fdc                std::panicking::panic_count::get_count
                0x00000000001c4000                rust_begin_unwind
                0x00000000001c403c                <std::panicking::begin_panic_handler::FormatStringPayload as core::panic::PanicPayload>::take_box
                0x00000000001c42b0                <std::panicking::begin_panic_handler::FormatStringPayload as core::panic::PanicPayload>::get
                0x00000000001c4438                <std::panicking::begin_panic_handler::FormatStringPayload as core::fmt::Display>::fmt
                0x00000000001c44fc                <std::panicking::begin_panic_handler::StaticStrPayload as core::panic::PanicPayload>::take_box
                0x00000000001c4610                <std::panicking::begin_panic_handler::StaticStrPayload as core::fmt::Display>::fmt
                0x00000000001c4a7c                std::panicking::payload_as_str
                0x00000000001c4bb8                std::panicking::rust_panic_with_hook
                0x00000000001c5218                <std::panicking::rust_panic_without_hook::RewrapBox as core::panic::PanicPayload>::take_box
                0x00000000001c5288                <std::panicking::rust_panic_without_hook::RewrapBox as core::fmt::Display>::fmt
                0x00000000001c52c4                rust_panic
                0x00000000001c5350                <std::backtrace_rs::backtrace::Frame as core::fmt::Debug>::fmt
                0x00000000001c549c                <std::backtrace_rs::symbolize::Symbol as core::fmt::Debug>::fmt
                0x00000000001c54f0                <std::backtrace_rs::symbolize::SymbolName as core::fmt::Display>::fmt
                0x00000000001c5774                <std::backtrace_rs::symbolize::SymbolName as core::fmt::Debug>::fmt
                0x00000000001c67c0                <std::sys::pal::unix::args::Args as core::fmt::Debug>::fmt
                0x00000000001c68b0                <std::sys::pal::unix::args::Args as core::iter::traits::iterator::Iterator>::next
                0x00000000001c6940                <std::sys::pal::unix::args::Args as core::iter::traits::iterator::Iterator>::size_hint
                0x00000000001c69a8                <std::sys::pal::unix::args::Args as core::iter::traits::exact_size::ExactSizeIterator>::len
                0x00000000001c69f8                <std::sys::pal::unix::args::Args as core::iter::traits::double_ended::DoubleEndedIterator>::next_back
                0x00000000001c6a88                std::sys::pal::unix::args::imp::ARGV_INIT_ARRAY::init_wrapper
                0x00000000001c6aa0                std::sys::pal::unix::fd::FileDesc::read
                0x00000000001c6b48                std::sys::pal::unix::fd::FileDesc::read_vectored
                0x00000000001c6bf0                std::sys::pal::unix::fd::FileDesc::read_to_end
                0x00000000001c711c                std::sys::pal::unix::fd::FileDesc::read_at
                0x00000000001c71d4                std::sys::pal::unix::fd::FileDesc::read_buf
                0x00000000001c72b8                std::sys::pal::unix::fd::FileDesc::read_vectored_at
                0x00000000001c7370                std::sys::pal::unix::fd::FileDesc::write
                0x00000000001c7418                std::sys::pal::unix::fd::FileDesc::write_vectored
                0x00000000001c74c0                std::sys::pal::unix::fd::FileDesc::write_at
                0x00000000001c7578                std::sys::pal::unix::fd::FileDesc::write_vectored_at
                0x00000000001c7630                std::sys::pal::unix::fd::FileDesc::set_cloexec
                0x00000000001c7730                std::sys::pal::unix::fd::FileDesc::set_nonblocking
                0x00000000001c77e4                <std::sys::pal::unix::fd::FileDesc as std::os::fd::owned::AsFd>::as_fd
                0x00000000001c77ec                <std::sys::pal::unix::fs::FileType as core::fmt::Debug>::fmt
                0x00000000001c7870                <std::sys::pal::unix::fs::FilePermissions as core::fmt::Debug>::fmt
                0x00000000001c78f4                <std::sys::pal::unix::fs::ReadDir as core::fmt::Debug>::fmt
                0x00000000001c794c                <std::sys::pal::unix::fs::ReadDir as core::iter::traits::iterator::Iterator>::next
                0x00000000001c7cc4                <std::sys::pal::unix::fs::Dir as core::ops::drop::Drop>::drop
                0x00000000001c8010                <std::sys::pal::unix::fs::OpenOptions as core::fmt::Debug>::fmt
                0x00000000001c8490                std::sys::pal::unix::fs::File::read
                0x00000000001c8490                <std::pipe::PipeReader as std::io::Read>::read
                0x00000000001c8538                <std::pipe::PipeReader as std::io::Read>::read_vectored
                0x00000000001c8538                std::sys::pal::unix::fs::File::read_vectored
                0x00000000001c85e0                std::sys::pal::unix::fs::File::read_buf
                0x00000000001c85e0                <std::pipe::PipeReader as std::io::Read>::read_buf
                0x00000000001c8758                <std::sys::pal::unix::fs::DirBuilder as core::fmt::Debug>::fmt
                0x00000000001c87dc                <std::sys::pal::unix::fs::File as core::fmt::Debug>::fmt
                0x00000000001c930c                <std::sys::pal::unix::fs::Mode as core::fmt::Debug>::fmt
                0x00000000001c980c                std::sys::pal::unix::fs::readdir
                0x00000000001c9c00                std::sys::pal::unix::fs::unlink
                0x00000000001c9e04                std::sys::pal::unix::fs::rename
                0x00000000001ca2fc                std::sys::pal::unix::fs::set_perm
                0x00000000001ca5a0                std::sys::pal::unix::fs::rmdir
                0x00000000001ca7a4                std::sys::pal::unix::fs::readlink
                0x00000000001cad5c                std::sys::pal::unix::fs::symlink
                0x00000000001cb254                std::sys::pal::unix::fs::link
                0x00000000001cb770                std::sys::pal::unix::fs::stat
                0x00000000001cbb84                std::sys::pal::unix::fs::lstat
                0x00000000001cbf98                std::sys::pal::unix::fs::canonicalize
                0x00000000001cc2cc                <std::sys::pal::unix::fs::cfm::CachedFileMetadata as std::io::Read>::read
                0x00000000001cc374                <std::sys::pal::unix::fs::cfm::CachedFileMetadata as std::io::Read>::read_vectored
                0x00000000001cc41c                <std::sys::pal::unix::fs::cfm::CachedFileMetadata as std::io::Read>::read_buf
                0x00000000001cc500                <std::sys::pal::unix::fs::cfm::CachedFileMetadata as std::io::Read>::read_to_end
                0x00000000001cc71c                <std::sys::pal::unix::fs::cfm::CachedFileMetadata as std::io::Read>::read_to_string
                0x00000000001cc768                <std::sys::pal::unix::fs::cfm::CachedFileMetadata as std::io::Write>::write
                0x00000000001cc810                <std::sys::pal::unix::fs::cfm::CachedFileMetadata as std::io::Write>::write_vectored
                0x00000000001cc8b8                std::sys::pal::unix::fs::copy
                0x00000000001cd394                std::sys::pal::unix::fs::chown
                0x00000000001cd5e8                std::sys::pal::unix::fs::fchown
                0x00000000001cd680                std::sys::pal::unix::fs::lchown
                0x00000000001cd8d4                std::sys::pal::unix::fs::chroot
                0x00000000001ce3bc                std::sys::pal::unix::fs::remove_dir_impl::remove_dir_all
                0x00000000001ce688                std::sys::pal::unix::futex::futex_wake
                0x00000000001ce6d8                std::sys::pal::unix::futex::futex_wake_all
                0x00000000001ce714                <std::fs::File as std::sys::pal::unix::kernel_copy::CopyRead>::properties
                0x00000000001ce714                <std::fs::File as std::sys::pal::unix::kernel_copy::CopyWrite>::properties
                0x00000000001ce764                <&std::fs::File as std::sys::pal::unix::kernel_copy::CopyWrite>::properties
                0x00000000001ce764                <&std::fs::File as std::sys::pal::unix::kernel_copy::CopyRead>::properties
                0x00000000001ce7b8                <std::io::stdio::StdinLock as std::sys::pal::unix::kernel_copy::CopyRead>::properties
                0x00000000001ceba4                <std::io::stdio::StdoutLock as std::sys::pal::unix::kernel_copy::CopyWrite>::properties
                0x00000000001cef8c                <std::io::stdio::StderrLock as std::sys::pal::unix::kernel_copy::CopyWrite>::properties
                0x00000000001cf730                std::sys::pal::unix::kernel_copy::copy_regular_files
                0x00000000001cfe18                std::sys::pal::unix::kernel_copy::sendfile_splice
                0x00000000001d0700                std::sys::pal::unix::net::Socket::new_raw
                0x00000000001d0e30                std::sys::pal::unix::os::errno
                0x00000000001d0e60                std::sys::pal::unix::os::chdir
                0x00000000001d1040                std::sys::pal::unix::os::split_paths::bytes_to_path
                0x00000000001d1040                std::path::Path::to_path_buf
                0x00000000001d1190                <std::sys::pal::unix::os::SplitPaths as core::iter::traits::iterator::Iterator>::next
                0x00000000001d1334                <std::sys::pal::unix::os::JoinPathsError as core::fmt::Display>::fmt
                0x00000000001d13ac                <std::sys::pal::unix::os::EnvStrDebug as core::fmt::Debug>::fmt
                0x00000000001d157c                <std::sys::pal::unix::os::Env as core::fmt::Debug>::fmt
                0x00000000001d166c                <std::sys::pal::unix::os::Env as core::iter::traits::iterator::Iterator>::next
                0x00000000001d16fc                <std::sys::pal::unix::os::Env as core::iter::traits::iterator::Iterator>::size_hint
                0x00000000001d1a94                std::sys::pal::unix::os::setenv
                0x00000000001d2150                std::sys::pal::unix::os::unsetenv
                0x00000000001d2d80                std::sys::pal::unix::pipe::anon_pipe
                0x00000000001d3490                std::sys::pal::unix::process::process_common::Command::new
                0x00000000001d3abc                std::sys::pal::unix::process::process_common::Command::set_arg_0
                0x00000000001d3e24                std::sys::pal::unix::process::process_common::Command::arg
                0x00000000001d41ac                std::sys::pal::unix::process::process_common::Command::cwd
                0x00000000001d4418                std::sys::pal::unix::process::process_common::Command::pre_exec
                0x00000000001d44f4                std::sys::pal::unix::process::process_common::Command::stdin
                0x00000000001d4588                std::sys::pal::unix::process::process_common::Command::stdout
                0x00000000001d461c                std::sys::pal::unix::process::process_common::Command::stderr
                0x00000000001d6a5c                <std::sys::pal::unix::process::process_common::Command as core::fmt::Debug>::fmt
                0x00000000001d78d0                <std::sys::pal::unix::process::process_common::ExitCode as core::fmt::Debug>::fmt
                0x00000000001d7940                <std::sys::pal::unix::process::process_common::CommandArgs as core::iter::traits::iterator::Iterator>::next
                0x00000000001d79c4                <std::sys::pal::unix::process::process_common::CommandArgs as core::iter::traits::iterator::Iterator>::size_hint
                0x00000000001d7a1c                <std::sys::pal::unix::process::process_common::CommandArgs as core::iter::traits::exact_size::ExactSizeIterator>::len
                0x00000000001d7a5c                <std::sys::pal::unix::process::process_common::CommandArgs as core::fmt::Debug>::fmt
                0x00000000001d7b48                <std::sys::pal::unix::stack_overflow::Handler as core::ops::drop::Drop>::drop
                0x00000000001d859c                <std::sys::pal::unix::stdio::Stdin as std::io::Read>::read
                0x00000000001d8640                <std::sys::pal::unix::stdio::Stdin as std::io::Read>::read_buf
                0x00000000001d8720                <std::sys::pal::unix::stdio::Stdin as std::io::Read>::read_vectored
                0x00000000001d87c4                <std::sys::pal::unix::stdio::Stdout as std::io::Write>::write
                0x00000000001d8868                <std::sys::pal::unix::stdio::Stdout as std::io::Write>::write_vectored
                0x00000000001d890c                <std::sys::pal::unix::stdio::Stderr as std::io::Write>::write
                0x00000000001d89b0                <std::sys::pal::unix::stdio::Stderr as std::io::Write>::write_vectored
                0x00000000001d8a64                std::sys::pal::unix::thread::Thread::new
                0x00000000001d926c                std::sys::pal::unix::thread::Thread::set_name
                0x00000000001d933c                std::sys::pal::unix::thread::Thread::join
                0x00000000001d9434                <std::sys::pal::unix::thread::Thread as core::ops::drop::Drop>::drop
                0x00000000001db7e8                <std::sys::pal::unix::time::SystemTime as core::fmt::Debug>::fmt
                0x00000000001dbc74                <std::sys::pal::unix::time::Instant as core::fmt::Debug>::fmt
                0x00000000001dbe5c                std::sys::pal::unix::abort_internal
                0x00000000001df1a0                <std::sys::pal::unix::process::process_inner::<impl std::sys::pal::unix::process::process_common::Command>::posix_spawn::PosixSpawnFileActions as core::ops::drop::Drop>::drop
                0x00000000001df1d0                <std::sys::pal::unix::process::process_inner::<impl std::sys::pal::unix::process::process_common::Command>::posix_spawn::PosixSpawnattr as core::ops::drop::Drop>::drop
                0x00000000001df8c0                <std::sys::pal::unix::process::process_inner::ExitStatus as core::fmt::Debug>::fmt
                0x00000000001df930                <std::sys::pal::unix::process::process_inner::ExitStatus as core::fmt::Display>::fmt
                0x00000000001dfdf0                <std::sys::pal::unix::process::process_inner::ExitStatusError as core::fmt::Debug>::fmt
                0x00000000001dfe60                std::sys::pal::unix::process::process_inner::linux_child_ext::<impl std::os::linux::process::ChildExt for std::process::Child>::pidfd
                0x00000000001dfee4                std::sys::pal::unix::process::process_inner::linux_child_ext::<impl std::os::linux::process::ChildExt for std::process::Child>::into_pidfd
                0x00000000001e00f0                rust_eh_personality
                0x00000000001e09a0                std::sys::anonymous_pipe::unix::<impl std::os::fd::owned::AsFd for std::pipe::PipeReader>::as_fd
                0x00000000001e09a0                <std::os::linux::process::PidFd as std::os::fd::owned::AsFd>::as_fd
                0x00000000001e09a0                std::sys::anonymous_pipe::unix::<impl std::os::fd::owned::AsFd for std::pipe::PipeWriter>::as_fd
                0x00000000001e09a0                <std::sys::pal::unix::net::Socket as std::os::fd::owned::AsFd>::as_fd
                0x00000000001e09a0                <std::sys::pal::unix::pipe::AnonPipe as std::os::fd::owned::AsFd>::as_fd
                0x00000000001e09a8                <std::sys::pal::unix::fs::File as std::os::fd::raw::FromRawFd>::from_raw_fd
                0x00000000001e09a8                <std::sys::pal::unix::pipe::AnonPipe as std::os::fd::raw::FromRawFd>::from_raw_fd
                0x00000000001e09a8                <std::sys::pal::unix::fd::FileDesc as std::os::fd::raw::FromRawFd>::from_raw_fd
                0x00000000001e09a8                <std::os::linux::process::PidFd as std::os::fd::raw::FromRawFd>::from_raw_fd
                0x00000000001e09a8                <std::sys::pal::unix::net::Socket as std::os::fd::raw::FromRawFd>::from_raw_fd
                0x00000000001e09a8                <std::sys::pal::unix::linux::pidfd::PidFd as std::os::fd::raw::FromRawFd>::from_raw_fd
                0x00000000001e09a8                std::sys::anonymous_pipe::unix::<impl std::os::fd::raw::FromRawFd for std::pipe::PipeWriter>::from_raw_fd
                0x00000000001e09a8                std::sys::anonymous_pipe::unix::<impl std::os::fd::raw::FromRawFd for std::pipe::PipeReader>::from_raw_fd
                0x00000000001e0de8                <std::sys::os_str::bytes::Slice as core::fmt::Display>::fmt
                0x00000000001e1030                <std::sys::os_str::bytes::Buf as core::fmt::Display>::fmt
                0x00000000001e1070                std::sys::os_str::bytes::Buf::into_string
                0x00000000001e11f8                std::sys::os_str::bytes::Buf::push_slice
                0x00000000001e12d4                std::sys::os_str::bytes::Slice::check_public_boundary::slow_path
                0x00000000001e154c                std::sys::os_str::bytes::Slice::to_string_lossy
                0x00000000001e1594                std::sys::os_str::bytes::Slice::to_owned
                0x00000000001e16e4                std::sys::os_str::bytes::Slice::clone_into
                0x00000000001e17c0                std::sys::os_str::bytes::Slice::empty_box
                0x00000000001e17cc                std::sys::path::unix::absolute
                0x00000000001e2b80                std::sys::random::linux::hashmap_random_keys
                0x00000000001e2bc8                std::sys::sync::condvar::futex::Condvar::wait
                0x00000000001e2db0                std::sys::sync::condvar::futex::Condvar::wait_timeout
                0x00000000001e30b4                <std::sys::sync::once::futex::CompletionGuard as core::ops::drop::Drop>::drop
                0x00000000001e336c                std::sys::thread_local::destructors::linux_like::register
                0x00000000001e3afc                <std::sys_common::net::LookupHost as core::iter::traits::iterator::Iterator>::next
                0x00000000001e3d60                <std::sys_common::net::LookupHost as core::ops::drop::Drop>::drop
                0x00000000001e3d90                <std::sys_common::net::LookupHost as core::convert::TryFrom<&str>>::try_from
                0x00000000001e41f8                <std::sys_common::net::LookupHost as core::convert::TryFrom<(&str,u16)>>::try_from
                0x00000000001e4808                std::sys_common::net::TcpStream::connect
                0x00000000001e4da0                <std::sys_common::net::TcpStream as core::fmt::Debug>::fmt
                0x00000000001e52a4                std::sys_common::net::TcpListener::bind
                0x00000000001e58bc                <std::sys_common::net::TcpListener as core::fmt::Debug>::fmt
                0x00000000001e5b98                std::sys_common::net::UdpSocket::bind
                0x00000000001e5e28                std::sys_common::net::UdpSocket::send_to
                0x00000000001e5fc8                std::sys_common::net::UdpSocket::connect
                0x00000000001e61a8                <std::sys_common::net::UdpSocket as core::fmt::Debug>::fmt
                0x00000000001e6484                std::sys_common::net::<impl std::sys_common::IntoInner<(std::sys_common::net::SocketAddrCRepr,u32)> for &core::net::socket_addr::SocketAddr>::into_inner
                0x00000000001e6568                std::alloc::rust_oom
                0x00000000001e65c8                __rg_oom
                0x00000000001e6608                <std::backtrace_rs::backtrace::libunwind::Frame as core::clone::Clone>::clone
                0x00000000001e66e4                <std::backtrace_rs::backtrace::libunwind::Bomb as core::ops::drop::Drop>::drop
 .text          0x00000000001e692c      0xddc /tmp/tmp.8JBNuUmbgF.o
                0x00000000001e70e8                entry_point
 .text          0x00000000001e7708     0x1fe4 /tmp/tmp.DWP6luA7mj.o
                0x00000000001e88d8                tig_algorithms::satisfiability::schnoing::benchmarker_outbound::solve_challenge
 .text          0x00000000001e96ec    0x2e180 /tmp/tmp.kEP4qVmKgW.o
                0x00000000001f0f30                core::slice::sort::stable::driftsort_main
                0x00000000001f11d0                core::slice::sort::stable::driftsort_main
                0x00000000001f1470                core::slice::sort::stable::driftsort_main
                0x00000000001f3ed8                core::slice::sort::stable::quicksort::quicksort
                0x00000000001f5ca0                core::slice::sort::stable::quicksort::quicksort
                0x00000000001f6e90                core::slice::sort::stable::quicksort::quicksort
                0x00000000001fbd7c                alloc::raw_vec::RawVec<T,A>::grow_one
                0x00000000001fbf34                alloc::raw_vec::RawVec<T,A>::grow_one
                0x00000000001fbf34                alloc::raw_vec::RawVec<T,A>::grow_one
                0x00000000001fbf34                alloc::raw_vec::RawVec<T,A>::grow_one
                0x00000000001fc0f0                alloc::raw_vec::RawVec<T,A>::grow_one
                0x00000000001fc268                alloc::raw_vec::RawVec<T,A>::grow_one
                0x00000000001fc400                alloc::raw_vec::RawVec<T,A>::grow_one
                0x00000000001fc598                alloc::raw_vec::RawVec<T,A>::grow_one
                0x0000000000203704                <tig_challenges::knapsack::Solution as core::convert::TryFrom<serde_json::map::Map<alloc::string::String,serde_json::value::Value>>>::try_from
                0x0000000000204190                <tig_challenges::knapsack::Challenge as tig_challenges::ChallengeTrait<tig_challenges::knapsack::Solution,tig_challenges::knapsack::Difficulty,2_usize>>::generate_instance
                0x0000000000207488                <tig_challenges::knapsack::Challenge as tig_challenges::ChallengeTrait<tig_challenges::knapsack::Solution,tig_challenges::knapsack::Difficulty,2_usize>>::verify_solution
                0x0000000000209504                tig_challenges::knapsack::calculate_total_value
                0x0000000000209bc8                <tig_challenges::satisfiability::Solution as core::convert::TryFrom<serde_json::map::Map<alloc::string::String,serde_json::value::Value>>>::try_from
                0x000000000020a538                <tig_challenges::satisfiability::Challenge as tig_challenges::ChallengeTrait<tig_challenges::satisfiability::Solution,tig_challenges::satisfiability::Difficulty,2_usize>>::generate_instance
                0x000000000020e1e8                <tig_challenges::satisfiability::Challenge as tig_challenges::ChallengeTrait<tig_challenges::satisfiability::Solution,tig_challenges::satisfiability::Difficulty,2_usize>>::verify_solution
                0x000000000020e4d0                <tig_challenges::satisfiability::bool_vec_as_u8::BoolVecVisitor as serde::de::Visitor>::expecting
                0x000000000020e50c                <tig_challenges::vector_search::Solution as core::convert::TryFrom<serde_json::map::Map<alloc::string::String,serde_json::value::Value>>>::try_from
                0x000000000020ee70                tig_challenges::vector_search::euclidean_distance
                0x000000000020f090                <tig_challenges::vector_search::Challenge as tig_challenges::ChallengeTrait<tig_challenges::vector_search::Solution,tig_challenges::vector_search::Difficulty,2_usize>>::generate_instance
                0x000000000020f6fc                <tig_challenges::vector_search::Challenge as tig_challenges::ChallengeTrait<tig_challenges::vector_search::Solution,tig_challenges::vector_search::Difficulty,2_usize>>::verify_solution
                0x000000000020fffc                <tig_challenges::vehicle_routing::Solution as core::convert::TryFrom<serde_json::map::Map<alloc::string::String,serde_json::value::Value>>>::try_from
                0x0000000000210ba4                <tig_challenges::vehicle_routing::Challenge as tig_challenges::ChallengeTrait<tig_challenges::vehicle_routing::Solution,tig_challenges::vehicle_routing::Difficulty,2_usize>>::generate_instance
                0x0000000000214744                <tig_challenges::vehicle_routing::Challenge as tig_challenges::ChallengeTrait<tig_challenges::vehicle_routing::Solution,tig_challenges::vehicle_routing::Difficulty,2_usize>>::verify_solution
                0x00000000002150f4                tig_challenges::vehicle_routing::calc_baseline_routes
                0x0000000000216c5c                tig_challenges::vehicle_routing::calc_routes_total_distance
                0x0000000000217704                <tig_challenges::knapsack::_::<impl serde::de::Deserialize for tig_challenges::knapsack::Difficulty>::deserialize::__Visitor as serde::de::Visitor>::expecting
                0x0000000000217704                <tig_challenges::vehicle_routing::_::<impl serde::de::Deserialize for tig_challenges::vehicle_routing::Difficulty>::deserialize::__Visitor as serde::de::Visitor>::expecting
                0x0000000000217704                <tig_challenges::satisfiability::_::<impl serde::de::Deserialize for tig_challenges::satisfiability::Difficulty>::deserialize::__Visitor as serde::de::Visitor>::expecting
                0x0000000000217704                <tig_challenges::vector_search::_::<impl serde::de::Deserialize for tig_challenges::vector_search::Difficulty>::deserialize::__Visitor as serde::de::Visitor>::expecting
                0x0000000000217740                <tig_challenges::vehicle_routing::_::<impl serde::de::Deserialize for tig_challenges::vehicle_routing::SubSolution>::deserialize::__FieldVisitor as serde::de::Visitor>::expecting
                0x0000000000217740                <tig_challenges::knapsack::_::<impl serde::de::Deserialize for tig_challenges::knapsack::Difficulty>::deserialize::__FieldVisitor as serde::de::Visitor>::expecting
                0x0000000000217740                <tig_challenges::knapsack::_::<impl serde::de::Deserialize for tig_challenges::knapsack::Solution>::deserialize::__FieldVisitor as serde::de::Visitor>::expecting
                0x0000000000217740                <tig_challenges::vehicle_routing::_::<impl serde::de::Deserialize for tig_challenges::vehicle_routing::SubInstance>::deserialize::__FieldVisitor as serde::de::Visitor>::expecting
                0x0000000000217740                <tig_challenges::vector_search::_::<impl serde::de::Deserialize for tig_challenges::vector_search::Challenge>::deserialize::__FieldVisitor as serde::de::Visitor>::expecting
                0x0000000000217740                <tig_challenges::satisfiability::_::<impl serde::de::Deserialize for tig_challenges::satisfiability::Challenge>::deserialize::__FieldVisitor as serde::de::Visitor>::expecting
                0x0000000000217740                <tig_challenges::vehicle_routing::_::<impl serde::de::Deserialize for tig_challenges::vehicle_routing::Difficulty>::deserialize::__FieldVisitor as serde::de::Visitor>::expecting
                0x0000000000217740                <tig_challenges::satisfiability::_::<impl serde::de::Deserialize for tig_challenges::satisfiability::Difficulty>::deserialize::__FieldVisitor as serde::de::Visitor>::expecting
                0x0000000000217740                <tig_challenges::vector_search::_::<impl serde::de::Deserialize for tig_challenges::vector_search::Solution>::deserialize::__FieldVisitor as serde::de::Visitor>::expecting
                0x0000000000217740                <tig_challenges::vector_search::_::<impl serde::de::Deserialize for tig_challenges::vector_search::Difficulty>::deserialize::__FieldVisitor as serde::de::Visitor>::expecting
                0x0000000000217740                <tig_challenges::vehicle_routing::_::<impl serde::de::Deserialize for tig_challenges::vehicle_routing::Solution>::deserialize::__FieldVisitor as serde::de::Visitor>::expecting
                0x0000000000217740                <tig_challenges::knapsack::_::<impl serde::de::Deserialize for tig_challenges::knapsack::SubInstance>::deserialize::__FieldVisitor as serde::de::Visitor>::expecting
                0x0000000000217740                <tig_challenges::knapsack::_::<impl serde::de::Deserialize for tig_challenges::knapsack::Challenge>::deserialize::__FieldVisitor as serde::de::Visitor>::expecting
                0x0000000000217740                <tig_challenges::satisfiability::_::<impl serde::de::Deserialize for tig_challenges::satisfiability::Solution>::deserialize::__FieldVisitor as serde::de::Visitor>::expecting
                0x0000000000217740                <tig_challenges::knapsack::_::<impl serde::de::Deserialize for tig_challenges::knapsack::SubSolution>::deserialize::__FieldVisitor as serde::de::Visitor>::expecting
                0x0000000000217740                <tig_challenges::vehicle_routing::_::<impl serde::de::Deserialize for tig_challenges::vehicle_routing::Challenge>::deserialize::__FieldVisitor as serde::de::Visitor>::expecting
                0x000000000021777c                <tig_challenges::vector_search::_::<impl serde::de::Deserialize for tig_challenges::vector_search::Solution>::deserialize::__Visitor as serde::de::Visitor>::expecting
                0x000000000021777c                <tig_challenges::satisfiability::_::<impl serde::de::Deserialize for tig_challenges::satisfiability::Solution>::deserialize::__Visitor as serde::de::Visitor>::expecting
                0x000000000021777c                <tig_challenges::knapsack::_::<impl serde::de::Deserialize for tig_challenges::knapsack::Solution>::deserialize::__Visitor as serde::de::Visitor>::expecting
                0x000000000021777c                <tig_challenges::vehicle_routing::_::<impl serde::de::Deserialize for tig_challenges::vehicle_routing::Solution>::deserialize::__Visitor as serde::de::Visitor>::expecting
                0x00000000002177b8                <tig_challenges::vehicle_routing::_::<impl serde::de::Deserialize for tig_challenges::vehicle_routing::SubSolution>::deserialize::__Visitor as serde::de::Visitor>::expecting
                0x00000000002177b8                <tig_challenges::knapsack::_::<impl serde::de::Deserialize for tig_challenges::knapsack::SubSolution>::deserialize::__Visitor as serde::de::Visitor>::expecting
                0x00000000002177f4                <tig_challenges::vehicle_routing::_::<impl serde::de::Deserialize for tig_challenges::vehicle_routing::Challenge>::deserialize::__Visitor as serde::de::Visitor>::expecting
                0x00000000002177f4                <tig_challenges::knapsack::_::<impl serde::de::Deserialize for tig_challenges::knapsack::Challenge>::deserialize::__Visitor as serde::de::Visitor>::expecting
                0x00000000002177f4                <tig_challenges::satisfiability::_::<impl serde::de::Deserialize for tig_challenges::satisfiability::Challenge>::deserialize::__Visitor as serde::de::Visitor>::expecting
                0x00000000002177f4                <tig_challenges::vector_search::_::<impl serde::de::Deserialize for tig_challenges::vector_search::Challenge>::deserialize::__Visitor as serde::de::Visitor>::expecting
                0x0000000000217830                <tig_challenges::vehicle_routing::_::<impl serde::de::Deserialize for tig_challenges::vehicle_routing::SubInstance>::deserialize::__Visitor as serde::de::Visitor>::expecting
                0x0000000000217830                <tig_challenges::knapsack::_::<impl serde::de::Deserialize for tig_challenges::knapsack::SubInstance>::deserialize::__Visitor as serde::de::Visitor>::expecting
 .text          0x000000000021786c     0x39a8 /tmp/tmp.3xIdfUSbiF.o
                0x000000000021acb0                rand_chacha::guts::read_u32le
                0x000000000021ad48                rand_chacha::chacha::abstract20::<impl core::convert::From<&rand_chacha::chacha::abstract20::ChaCha20Rng> for rand_chacha::chacha::ChaCha20Rng>::from
                0x000000000021ae3c                rand_chacha::chacha::abstract12::<impl core::convert::From<&rand_chacha::chacha::abstract12::ChaCha12Rng> for rand_chacha::chacha::ChaCha12Rng>::from
                0x000000000021af30                <rand_chacha::chacha::ChaCha20Core as core::fmt::Debug>::fmt
                0x000000000021af30                <rand_chacha::chacha::ChaCha12Core as core::fmt::Debug>::fmt
                0x000000000021af30                <rand_chacha::chacha::ChaCha8Core as core::fmt::Debug>::fmt
                0x000000000021af70                <rand_chacha::chacha::ChaCha8Rng as core::convert::From<rand_chacha::chacha::ChaCha8Core>>::from
                0x000000000021af70                <rand_chacha::chacha::ChaCha12Rng as core::convert::From<rand_chacha::chacha::ChaCha12Core>>::from
                0x000000000021af70                <rand_chacha::chacha::ChaCha20Rng as core::convert::From<rand_chacha::chacha::ChaCha20Core>>::from
                0x000000000021afe8                <rand_chacha::chacha::ChaCha12Rng as core::cmp::PartialEq>::eq
                0x000000000021afe8                <rand_chacha::chacha::ChaCha8Rng as core::cmp::PartialEq>::eq
                0x000000000021afe8                <rand_chacha::chacha::ChaCha20Rng as core::cmp::PartialEq>::eq
                0x000000000021b0b4                <rand_chacha::chacha::abstract20::ChaCha20Rng as core::convert::From<&rand_chacha::chacha::ChaCha20Rng>>::from
                0x000000000021b0b4                <rand_chacha::chacha::abstract12::ChaCha12Rng as core::convert::From<&rand_chacha::chacha::ChaCha12Rng>>::from
                0x000000000021b0b4                <rand_chacha::chacha::abstract8::ChaCha8Rng as core::convert::From<&rand_chacha::chacha::ChaCha8Rng>>::from
                0x000000000021b120                rand_chacha::chacha::abstract8::<impl core::convert::From<&rand_chacha::chacha::abstract8::ChaCha8Rng> for rand_chacha::chacha::ChaCha8Rng>::from
 .text          0x000000000021b214     0x5944 /tmp/tmp.ydWpPdcAJ4.o
                0x000000000021d11c                alloc::raw_vec::RawVec<T,A>::grow_one
                0x000000000021d2f4                anyhow::chain::<impl core::iter::traits::iterator::Iterator for anyhow::Chain>::next
                0x000000000021d3f4                anyhow::chain::<impl core::iter::traits::iterator::Iterator for anyhow::Chain>::size_hint
                0x000000000021d540                anyhow::chain::<impl core::iter::traits::double_ended::DoubleEndedIterator for anyhow::Chain>::next_back
                0x000000000021d89c                anyhow::chain::<impl core::iter::traits::exact_size::ExactSizeIterator for anyhow::Chain>::len
                0x000000000021d9b8                anyhow::chain::<impl core::default::Default for anyhow::Chain>::default
                0x000000000021d9f0                <anyhow::context::Quoted<&mut core::fmt::Formatter> as core::fmt::Write>::write_str
                0x000000000021da50                <anyhow::ensure::Buf as core::fmt::Write>::write_str
                0x000000000021db8c                anyhow::ensure::render
                0x000000000021e0d8                anyhow::error::<impl anyhow::Error>::backtrace
                0x000000000021e1bc                anyhow::error::<impl anyhow::Error>::root_cause
                0x000000000021e288                anyhow::error::<impl anyhow::Error>::into_boxed_dyn_error
                0x000000000021e2c0                anyhow::error::<impl anyhow::Error>::reallocate_into_boxed_dyn_error_without_backtrace
                0x000000000021e2f8                anyhow::error::<impl anyhow::Error>::provide
                0x000000000021e440                anyhow::error::<impl anyhow::Error>::thiserror_provide
                0x000000000021e588                anyhow::error::<impl core::ops::deref::Deref for anyhow::Error>::deref
                0x000000000021e588                anyhow::error::<impl core::ops::deref::DerefMut for anyhow::Error>::deref_mut
                0x000000000021e5c0                anyhow::error::<impl core::fmt::Display for anyhow::Error>::fmt
                0x000000000021eb48                anyhow::error::<impl core::fmt::Debug for anyhow::Error>::fmt
                0x000000000021eb88                anyhow::error::<impl core::ops::drop::Drop for anyhow::Error>::drop
                0x000000000021f7d0                anyhow::error::ErrorImpl::error
                0x000000000021f808                anyhow::error::ErrorImpl::provide
                0x000000000021fb20                anyhow::error::<impl core::convert::AsRef<dyn core::error::Error+core::marker::Sync+core::marker::Send> for anyhow::Error>::as_ref
                0x000000000021fb20                anyhow::error::<impl core::convert::AsRef<dyn core::error::Error> for anyhow::Error>::as_ref
                0x000000000021fb58                anyhow::fmt::<impl anyhow::error::ErrorImpl>::debug
                0x00000000002208e4                anyhow::nightly::request_ref_backtrace
                0x0000000000220a50                <anyhow::wrapper::BoxedError as core::fmt::Debug>::fmt
                0x0000000000220a94                <anyhow::wrapper::BoxedError as core::fmt::Display>::fmt
                0x0000000000220ad8                <anyhow::wrapper::BoxedError as core::error::Error>::source
                0x0000000000220b0c                <anyhow::wrapper::BoxedError as core::error::Error>::provide
 .text          0x0000000000220b58    0x3ef1c /tmp/tmp.hE4DplIHT5.o
                0x0000000000220b58                core::num::dec2flt::decimal::Decimal::round
                0x0000000000220e00                core::num::dec2flt::decimal::Decimal::left_shift
                0x0000000000221404                core::num::dec2flt::decimal::Decimal::right_shift
                0x0000000000221970                core::num::dec2flt::decimal::parse_decimal
                0x000000000022235c                <f32 as core::num::dec2flt::float::RawFloat>::pow10_fast_path
                0x00000000002223a0                <f64 as core::num::dec2flt::float::RawFloat>::pow10_fast_path
                0x00000000002229a0                core::num::dec2flt::lemire::compute_product_approx
                0x0000000000222ab8                core::num::dec2flt::parse::parse_number
                0x00000000002235c0                <core::num::dec2flt::ParseFloatError as core::fmt::Display>::fmt
                0x0000000000223630                core::num::diy_float::Fp::normalize_to
                0x0000000000223770                core::num::flt2dec::estimator::estimate_scaling_factor
                0x00000000002237dc                core::num::flt2dec::strategy::dragon::mul_pow10
                0x0000000000223ef0                core::num::flt2dec::strategy::dragon::format_shortest
                0x00000000002260dc                core::num::flt2dec::strategy::dragon::format_exact
                0x0000000000228034                core::num::flt2dec::strategy::grisu::cached_power
                0x0000000000228114                core::num::flt2dec::strategy::grisu::format_shortest_opt
                0x00000000002291f8                core::num::flt2dec::strategy::grisu::format_shortest
                0x00000000002292e8                core::num::flt2dec::strategy::grisu::format_exact_opt
                0x000000000022a128                core::num::flt2dec::strategy::grisu::format_exact
                0x000000000022a224                core::num::flt2dec::round_up
                0x000000000022a40c                core::num::flt2dec::digits_to_dec_str
                0x000000000022a790                core::num::flt2dec::digits_to_exp_str
                0x000000000022aabc                core::num::fmt::Part::write
                0x000000000022ae48                core::num::fmt::Formatted::len
                0x000000000022b030                core::num::fmt::Formatted::write
                0x000000000022b1d4                <core::num::error::TryFromIntError as core::fmt::Display>::fmt
                0x000000000022b210                <core::num::error::ParseIntError as core::fmt::Display>::fmt
                0x000000000022b274                <core::mem::transmutability::Assume as core::ops::arith::Sub>::sub
                0x000000000022b2bc                <core::ptr::alignment::Alignment as core::fmt::Debug>::fmt
                0x000000000022b364                <core::ffi::c_str::CStr as core::clone::CloneToUninit>::clone_to_uninit
                0x000000000022b3ac                <core::error::Request as core::fmt::Debug>::fmt
                0x000000000022b444                <core::error::Source as core::iter::traits::iterator::Iterator>::next
                0x000000000022b4d0                <core::ops::range::RangeFull as core::fmt::Debug>::fmt
                0x000000000022b5c4                <dyn core::any::Any+core::marker::Sync+core::marker::Send as core::fmt::Debug>::fmt
                0x000000000022b5c4                <dyn core::any::Any as core::fmt::Debug>::fmt
                0x000000000022b5c4                <dyn core::any::Any+core::marker::Send as core::fmt::Debug>::fmt
                0x000000000022b65c                <core::any::TypeId as core::fmt::Debug>::fmt
                0x000000000022b718                <core::ascii::ascii_char::AsciiChar as core::fmt::Display>::fmt
                0x000000000022b75c                <core::ascii::ascii_char::AsciiChar as core::fmt::Debug>::fmt
                0x000000000022b934                core::ascii::escape_default
                0x000000000022ba4c                <core::ascii::EscapeDefault as core::fmt::Display>::fmt
                0x000000000022baa4                <core::ascii::EscapeDefault as core::fmt::Debug>::fmt
                0x000000000022bb3c                <core::cell::BorrowError as core::fmt::Debug>::fmt
                0x000000000022bb7c                <core::cell::BorrowError as core::fmt::Display>::fmt
                0x000000000022bbb8                <core::cell::BorrowMutError as core::fmt::Debug>::fmt
                0x000000000022bbf8                <core::cell::BorrowMutError as core::fmt::Display>::fmt
                0x000000000022bc34                <core::char::convert::ParseCharError as core::fmt::Display>::fmt
                0x000000000022bca4                <core::char::convert::CharTryFromError as core::fmt::Display>::fmt
                0x000000000022bce0                <core::char::decode::DecodeUtf16Error as core::fmt::Display>::fmt
                0x000000000022c16c                <core::char::EscapeDefault as core::fmt::Display>::fmt
                0x000000000022c16c                <core::char::EscapeUnicode as core::fmt::Display>::fmt
                0x000000000022c1c4                <core::char::EscapeDebug as core::fmt::Display>::fmt
                0x000000000022c280                <core::char::CaseMappingIter as core::iter::traits::iterator::Iterator>::next
                0x000000000022c304                <core::char::CaseMappingIter as core::iter::traits::iterator::Iterator>::count
                0x000000000022c340                <core::char::CaseMappingIter as core::iter::traits::iterator::Iterator>::last
                0x000000000022c3f0                <core::char::CaseMappingIter as core::iter::traits::iterator::Iterator>::advance_by
                0x000000000022c44c                <core::char::CaseMappingIter as core::iter::traits::double_ended::DoubleEndedIterator>::next_back
                0x000000000022c4d0                <core::char::CaseMappingIter as core::iter::traits::double_ended::DoubleEndedIterator>::advance_back_by
                0x000000000022c530                <core::char::TryFromCharError as core::fmt::Display>::fmt
                0x000000000022c56c                <core::ffi::c_str::FromBytesUntilNulError as core::fmt::Display>::fmt
                0x000000000022c5ac                <core::ffi::c_str::CStr as core::fmt::Debug>::fmt
                0x000000000022c644                <core::ffi::c_str::FromBytesWithNulError as core::fmt::Display>::fmt
                0x000000000022c750                core::ffi::c_str::CStr::from_bytes_until_nul
                0x000000000022caf0                core::ffi::c_str::CStr::from_bytes_with_nul
                0x000000000022cea8                core::ffi::c_str::CStr::to_str
                0x000000000022cef8                <core::ffi::c_void as core::fmt::Debug>::fmt
                0x000000000022cf38                <core::io::borrowed_buf::BorrowedBuf as core::fmt::Debug>::fmt
                0x000000000022d388                <core::net::ip_addr::IpAddr as core::fmt::Display>::fmt
                0x000000000022d41c                <core::net::ip_addr::IpAddr as core::fmt::Debug>::fmt
                0x000000000022d4b0                <core::net::ip_addr::Ipv4Addr as core::fmt::Display>::fmt
                0x000000000022d6e4                <core::net::ip_addr::Ipv4Addr as core::fmt::Debug>::fmt
                0x000000000022d724                <core::net::ip_addr::Ipv6Addr as core::fmt::Display>::fmt
                0x000000000022e658                <core::net::ip_addr::Ipv6Addr as core::fmt::Debug>::fmt
                0x0000000000230464                core::net::parser::<impl core::net::ip_addr::IpAddr>::parse_ascii
                0x0000000000230650                core::net::parser::<impl core::str::traits::FromStr for core::net::ip_addr::IpAddr>::from_str
                0x000000000023083c                core::net::parser::<impl core::net::ip_addr::Ipv4Addr>::parse_ascii
                0x0000000000230900                core::net::parser::<impl core::str::traits::FromStr for core::net::ip_addr::Ipv4Addr>::from_str
                0x00000000002309c4                core::net::parser::<impl core::net::ip_addr::Ipv6Addr>::parse_ascii
                0x0000000000230ad0                core::net::parser::<impl core::str::traits::FromStr for core::net::ip_addr::Ipv6Addr>::from_str
                0x0000000000230bdc                core::net::parser::<impl core::net::socket_addr::SocketAddrV4>::parse_ascii
                0x0000000000230dcc                core::net::parser::<impl core::str::traits::FromStr for core::net::socket_addr::SocketAddrV4>::from_str
                0x0000000000230fc0                core::net::parser::<impl core::net::socket_addr::SocketAddrV6>::parse_ascii
                0x00000000002310e8                core::net::parser::<impl core::str::traits::FromStr for core::net::socket_addr::SocketAddrV6>::from_str
                0x0000000000231210                core::net::parser::<impl core::net::socket_addr::SocketAddr>::parse_ascii
                0x00000000002315e4                core::net::parser::<impl core::str::traits::FromStr for core::net::socket_addr::SocketAddr>::from_str
                0x000000000023162c                <core::net::parser::AddrParseError as core::fmt::Display>::fmt
                0x0000000000231694                <core::net::socket_addr::SocketAddr as core::fmt::Display>::fmt
                0x0000000000231704                <core::net::socket_addr::SocketAddr as core::fmt::Debug>::fmt
                0x0000000000231774                <core::net::socket_addr::SocketAddrV4 as core::fmt::Display>::fmt
                0x0000000000231980                <core::net::socket_addr::SocketAddrV4 as core::fmt::Debug>::fmt
                0x00000000002319c0                <core::net::socket_addr::SocketAddrV6 as core::fmt::Display>::fmt
                0x0000000000231d30                <core::net::socket_addr::SocketAddrV6 as core::fmt::Debug>::fmt
                0x0000000000231d70                <core::panic::panic_info::PanicInfo as core::fmt::Display>::fmt
                0x0000000000231ed0                core::panicking::const_panic_fmt
                0x0000000000231fb4                <core::panicking::assert_matches_failed::Pattern as core::fmt::Debug>::fmt
                0x0000000000231ff8                <core::sync::atomic::AtomicBool as core::fmt::Debug>::fmt
                0x000000000023209c                core::fmt::builders::PadAdapter::wrap
                0x0000000000232108                <core::fmt::builders::PadAdapter as core::fmt::Write>::write_str
                0x000000000023268c                <core::fmt::builders::PadAdapter as core::fmt::Write>::write_char
                0x0000000000232764                core::fmt::builders::DebugStruct::field
                0x0000000000232a8c                core::fmt::builders::DebugStruct::finish_non_exhaustive
                0x0000000000232c28                core::fmt::builders::DebugStruct::finish
                0x0000000000232d10                core::fmt::builders::DebugTuple::field
                0x0000000000232f58                core::fmt::builders::DebugTuple::finish_non_exhaustive
                0x00000000002330f8                core::fmt::builders::DebugTuple::finish
                0x000000000023324c                core::fmt::builders::DebugList::entry
                0x000000000023324c                core::fmt::builders::DebugSet::entry
                0x0000000000233474                core::fmt::builders::DebugSet::finish_non_exhaustive
                0x0000000000233610                core::fmt::builders::DebugSet::finish
                0x0000000000233688                core::fmt::builders::DebugList::finish_non_exhaustive
                0x0000000000233824                core::fmt::builders::DebugList::finish
                0x000000000023389c                core::fmt::builders::DebugMap::entry
                0x0000000000233ae4                core::fmt::builders::DebugMap::key
                0x0000000000233db0                core::fmt::builders::DebugMap::value
                0x0000000000233fe0                core::fmt::builders::DebugMap::finish_non_exhaustive
                0x00000000002341e8                core::fmt::builders::DebugMap::finish
                0x0000000000237394                core::fmt::num::<impl core::fmt::Display for u128>::fmt
                0x00000000002373d8                core::fmt::num::<impl core::fmt::Display for i128>::fmt
                0x0000000000238124                core::fmt::FormattingOptions::get_sign
                0x00000000002381d8                core::fmt::FormattingOptions::get_debug_as_hex
                0x000000000023828c                <core::fmt::Arguments as core::fmt::Debug>::fmt
                0x00000000002382cc                <core::fmt::Arguments as core::fmt::Display>::fmt
                0x000000000023830c                core::fmt::write
                0x00000000002387dc                core::fmt::Formatter::pad_integral
                0x000000000023921c                core::fmt::Formatter::pad
                0x000000000023a6ec                <core::fmt::Formatter as core::fmt::Write>::write_str
                0x000000000023a6ec                core::fmt::Formatter::write_str
                0x000000000023a738                core::fmt::Formatter::debug_struct
                0x000000000023a7a0                core::fmt::Formatter::debug_struct_field1_finish
                0x000000000023a914                core::fmt::Formatter::debug_struct_field2_finish
                0x000000000023aabc                core::fmt::Formatter::debug_struct_field3_finish
                0x000000000023ac84                core::fmt::Formatter::debug_struct_field4_finish
                0x000000000023ae6c                core::fmt::Formatter::debug_struct_field5_finish
                0x000000000023b074                core::fmt::Formatter::debug_struct_fields_finish
                0x000000000023b2bc                core::fmt::Formatter::debug_tuple
                0x000000000023b334                core::fmt::Formatter::debug_tuple_field1_finish
                0x000000000023b5f8                core::fmt::Formatter::debug_tuple_field2_finish
                0x000000000023b98c                core::fmt::Formatter::debug_tuple_field3_finish
                0x000000000023be78                core::fmt::Formatter::debug_tuple_field4_finish
                0x000000000023c4b0                core::fmt::Formatter::debug_tuple_field5_finish
                0x000000000023cc34                core::fmt::Formatter::debug_tuple_fields_finish
                0x000000000023d124                core::fmt::Formatter::debug_list
                0x000000000023d180                core::fmt::Formatter::debug_set
                0x000000000023d1dc                core::fmt::Formatter::debug_map
                0x000000000023d240                core::fmt::Formatter::sign
                0x000000000023d2f4                <core::fmt::Formatter as core::fmt::Write>::write_char
                0x000000000023d338                <core::fmt::Error as core::fmt::Display>::fmt
                0x000000000023d374                <bool as core::fmt::Display>::fmt
                0x000000000023d3e4                <str as core::fmt::Debug>::fmt
                0x000000000023dd9c                <str as core::fmt::Display>::fmt
                0x000000000023dde4                <char as core::fmt::Debug>::fmt
                0x000000000023df44                <char as core::fmt::Display>::fmt
                0x000000000023e178                core::fmt::pointer_fmt_inner
                0x000000000023e494                core::slice::memchr::memchr_aligned
                0x000000000023e7a0                core::slice::memchr::memrchr
                0x000000000023eb38                core::slice::sort::stable::drift::sqrt_approx
                0x000000000023eb94                <core::slice::ascii::EscapeAscii as core::iter::traits::double_ended::DoubleEndedIterator>::next_back
                0x000000000023ef44                <core::slice::ascii::EscapeAscii as core::fmt::Display>::fmt
                0x000000000023f530                <core::slice::ascii::EscapeAscii as core::fmt::Debug>::fmt
                0x000000000023f5c8                core::slice::index::into_range
                0x000000000023f714                core::slice::index::into_slice_range
                0x000000000023f884                core::slice::<impl [T]>::align_to_offsets::gcd
                0x000000000023f91c                <core::slice::GetManyMutError as core::fmt::Display>::fmt
                0x000000000023f98c                core::str::converts::from_utf8
                0x00000000002400f8                core::str::converts::from_utf8_mut
                0x0000000000240864                core::str::count::do_count_chars
                0x0000000000241464                core::str::count::char_count_general_case
                0x000000000024198c                <core::str::error::Utf8Error as core::fmt::Display>::fmt
                0x0000000000241a84                <core::str::error::ParseBoolError as core::fmt::Display>::fmt
                0x0000000000241ac0                <core::str::iter::Chars as core::fmt::Debug>::fmt
                0x0000000000242824                <core::str::iter::EncodeUtf16 as core::fmt::Debug>::fmt
                0x00000000002428bc                core::str::pattern::StrSearcher::new
                0x0000000000243cfc                <core::str::lossy::Debug as core::fmt::Debug>::fmt
                0x0000000000244700                <core::str::lossy::Utf8Chunks as core::iter::traits::iterator::Iterator>::next
                0x0000000000244bd0                <core::str::lossy::Utf8Chunks as core::fmt::Debug>::fmt
                0x0000000000244d34                core::str::slice_error_fail_ct
                0x0000000000244d84                core::str::slice_error_fail_rt
                0x000000000024572c                core::str::<impl str>::split_at_unchecked
                0x000000000024578c                core::str::<impl str>::split_at_mut_unchecked
                0x00000000002457ec                core::str::<impl str>::escape_debug
                0x00000000002459e8                core::str::<impl str>::substr_range
                0x0000000000245a80                <core::time::Duration as core::fmt::Debug>::fmt
                0x00000000002470b0                <core::time::TryFromFloatSecsError as core::fmt::Display>::fmt
                0x0000000000247120                core::unicode::printable::is_printable
                0x0000000000247930                <core::task::wake::Context as core::fmt::Debug>::fmt
                0x0000000000247a8c                <core::task::wake::Waker as core::fmt::Debug>::fmt
                0x0000000000247c10                <core::task::wake::LocalWaker as core::fmt::Debug>::fmt
                0x0000000000247d94                core::alloc::layout::Layout::is_size_align_valid
                0x0000000000247e20                <core::alloc::layout::LayoutError as core::fmt::Display>::fmt
                0x0000000000247e60                <core::alloc::AllocError as core::fmt::Display>::fmt
                0x0000000000247ea0                core::f32::<impl f32>::clamp::do_panic::runtime
                0x0000000000247f18                core::f64::<impl f64>::clamp::do_panic::runtime
                0x0000000000247f90                <u8 as core::num::bignum::FullOps>::full_div_rem
                0x0000000000248034                <u16 as core::num::bignum::FullOps>::full_div_rem
                0x00000000002480d4                <u32 as core::num::bignum::FullOps>::full_div_rem
                0x000000000024817c                core::num::bignum::Big32x40::from_u64
                0x0000000000248278                core::num::bignum::Big32x40::digits
                0x00000000002482f4                core::num::bignum::Big32x40::get_bit
                0x00000000002483a0                core::num::bignum::Big32x40::is_zero
                0x00000000002484a8                core::num::bignum::Big32x40::bit_length
                0x000000000024864c                core::num::bignum::Big32x40::add
                0x0000000000248808                core::num::bignum::Big32x40::add_small
                0x00000000002491e4                core::num::bignum::Big32x40::sub
                0x000000000024934c                core::num::bignum::Big32x40::mul_small
                0x0000000000249514                core::num::bignum::Big32x40::mul_pow2
                0x0000000000249a20                core::num::bignum::Big32x40::mul_pow5
                0x0000000000249f60                core::num::bignum::Big32x40::mul_digits
                0x000000000024a668                core::num::bignum::Big32x40::div_rem_small
                0x000000000024a7f8                core::num::bignum::Big32x40::div_rem
                0x000000000024ae84                <core::num::bignum::Big32x40 as core::cmp::PartialEq>::eq
                0x000000000024aedc                <core::num::bignum::Big32x40 as core::cmp::PartialOrd>::partial_cmp
                0x000000000024b038                <core::num::bignum::Big32x40 as core::cmp::Ord>::cmp
                0x000000000024b194                <core::num::bignum::Big32x40 as core::fmt::Debug>::fmt
                0x000000000024b3e8                core::num::bignum::tests::Big8x3::from_u64
                0x000000000024b548                core::num::bignum::tests::Big8x3::digits
                0x000000000024b5dc                core::num::bignum::tests::Big8x3::get_bit
                0x000000000024b690                core::num::bignum::tests::Big8x3::is_zero
                0x000000000024b808                core::num::bignum::tests::Big8x3::bit_length
                0x000000000024ba94                core::num::bignum::tests::Big8x3::add
                0x000000000024bc64                core::num::bignum::tests::Big8x3::add_small
                0x000000000024bd94                core::num::bignum::tests::Big8x3::sub
                0x000000000024bf0c                core::num::bignum::tests::Big8x3::mul_small
                0x000000000024c124                core::num::bignum::tests::Big8x3::mul_pow2
                0x000000000024c5f4                core::num::bignum::tests::Big8x3::mul_pow5
                0x000000000024cad4                core::num::bignum::tests::Big8x3::mul_digits
                0x000000000024d3ac                core::num::bignum::tests::Big8x3::div_rem_small
                0x000000000024d594                core::num::bignum::tests::Big8x3::div_rem
                0x000000000024de00                <core::num::bignum::tests::Big8x3 as core::cmp::PartialEq>::eq
                0x000000000024de5c                <core::num::bignum::tests::Big8x3 as core::cmp::PartialOrd>::partial_cmp
                0x000000000024e09c                <core::num::bignum::tests::Big8x3 as core::cmp::Ord>::cmp
                0x000000000024e2dc                <core::num::bignum::tests::Big8x3 as core::fmt::Debug>::fmt
                0x000000000024e52c                core::num::dec2flt::<impl core::str::traits::FromStr for f32>::from_str
                0x000000000024f164                core::num::dec2flt::<impl core::str::traits::FromStr for f64>::from_str
                0x000000000024fe48                <core::num::nonzero::NonZero<u8> as core::str::traits::FromStr>::from_str
                0x00000000002500e0                <core::num::nonzero::NonZero<u16> as core::str::traits::FromStr>::from_str
                0x0000000000250384                <core::num::nonzero::NonZero<u32> as core::str::traits::FromStr>::from_str
                0x0000000000250664                <core::num::nonzero::NonZero<u64> as core::str::traits::FromStr>::from_str
                0x0000000000250664                <core::num::nonzero::NonZero<usize> as core::str::traits::FromStr>::from_str
                0x0000000000250930                <core::num::nonzero::NonZero<u128> as core::str::traits::FromStr>::from_str
                0x0000000000250c30                <core::num::nonzero::NonZero<i8> as core::str::traits::FromStr>::from_str
                0x0000000000251024                <core::num::nonzero::NonZero<i16> as core::str::traits::FromStr>::from_str
                0x000000000025149c                <core::num::nonzero::NonZero<i32> as core::str::traits::FromStr>::from_str
                0x0000000000251910                <core::num::nonzero::NonZero<isize> as core::str::traits::FromStr>::from_str
                0x0000000000251910                <core::num::nonzero::NonZero<i64> as core::str::traits::FromStr>::from_str
                0x0000000000251da8                <core::num::nonzero::NonZero<i128> as core::str::traits::FromStr>::from_str
                0x00000000002522c0                <core::num::niche_types::Nanoseconds as core::fmt::Debug>::fmt
                0x000000000025230c                <core::num::niche_types::NonZeroU8Inner as core::fmt::Debug>::fmt
                0x000000000025234c                <core::num::niche_types::NonZeroU16Inner as core::fmt::Debug>::fmt
                0x000000000025238c                <core::num::niche_types::NonZeroU32Inner as core::fmt::Debug>::fmt
                0x00000000002523d8                <core::num::niche_types::NonZeroU64Inner as core::fmt::Debug>::fmt
                0x0000000000252418                <core::num::niche_types::NonZeroU128Inner as core::fmt::Debug>::fmt
                0x0000000000252458                <core::num::niche_types::NonZeroI8Inner as core::fmt::Debug>::fmt
                0x0000000000252498                <core::num::niche_types::NonZeroI16Inner as core::fmt::Debug>::fmt
                0x00000000002524d8                <core::num::niche_types::NonZeroI32Inner as core::fmt::Debug>::fmt
                0x0000000000252518                <core::num::niche_types::NonZeroI64Inner as core::fmt::Debug>::fmt
                0x0000000000252518                <core::num::niche_types::NonZeroIsizeInner as core::fmt::Debug>::fmt
                0x0000000000252558                <core::num::niche_types::NonZeroI128Inner as core::fmt::Debug>::fmt
                0x0000000000252598                <core::num::niche_types::UsizeNoHighBit as core::fmt::Debug>::fmt
                0x00000000002525e4                <core::num::niche_types::NonZeroUsizeInner as core::fmt::Debug>::fmt
                0x0000000000252630                <core::num::niche_types::U32NotAllOnes as core::fmt::Debug>::fmt
                0x000000000025267c                <core::num::niche_types::I32NotAllOnes as core::fmt::Debug>::fmt
                0x00000000002526bc                <core::num::niche_types::U64NotAllOnes as core::fmt::Debug>::fmt
                0x00000000002526fc                <core::num::niche_types::I64NotAllOnes as core::fmt::Debug>::fmt
                0x000000000025273c                core::num::from_str_radix_panic::do_panic::runtime
                0x00000000002527a8                core::char::methods::encode_utf8_raw::do_panic::runtime
                0x00000000002528a0                core::char::methods::encode_utf16_raw::do_panic::runtime
                0x0000000000252998                <core::char::ToUppercase as core::iter::traits::iterator::Iterator>::next
                0x0000000000252998                <core::char::ToLowercase as core::iter::traits::iterator::Iterator>::next
                0x0000000000252a1c                <core::char::ToLowercase as core::iter::traits::iterator::Iterator>::count
                0x0000000000252a1c                <core::char::ToUppercase as core::iter::traits::iterator::Iterator>::count
                0x0000000000252a58                <core::char::ToUppercase as core::iter::traits::iterator::Iterator>::last
                0x0000000000252a58                <core::char::ToLowercase as core::iter::traits::iterator::Iterator>::last
                0x0000000000252b08                <core::char::ToUppercase as core::iter::traits::iterator::Iterator>::advance_by
                0x0000000000252b08                <core::char::ToLowercase as core::iter::traits::iterator::Iterator>::advance_by
                0x0000000000252b64                <core::char::ToUppercase as core::iter::traits::double_ended::DoubleEndedIterator>::next_back
                0x0000000000252b64                <core::char::ToLowercase as core::iter::traits::double_ended::DoubleEndedIterator>::next_back
                0x0000000000252be8                <core::char::ToUppercase as core::iter::traits::double_ended::DoubleEndedIterator>::advance_back_by
                0x0000000000252be8                <core::char::ToLowercase as core::iter::traits::double_ended::DoubleEndedIterator>::advance_back_by
                0x0000000000252c48                <core::char::ToLowercase as core::fmt::Display>::fmt
                0x0000000000252c48                <core::char::ToUppercase as core::fmt::Display>::fmt
                0x0000000000252e60                <core::net::ip_addr::Ipv4Addr as core::ops::bit::BitAndAssign>::bitand_assign
                0x0000000000252ed0                <core::net::ip_addr::Ipv4Addr as core::ops::bit::BitAndAssign<&core::net::ip_addr::Ipv4Addr>>::bitand_assign
                0x0000000000252f44                <core::net::ip_addr::Ipv4Addr as core::ops::bit::BitOrAssign>::bitor_assign
                0x0000000000252fb4                <core::net::ip_addr::Ipv4Addr as core::ops::bit::BitOrAssign<&core::net::ip_addr::Ipv4Addr>>::bitor_assign
                0x0000000000253028                <core::net::ip_addr::Ipv6Addr as core::ops::bit::BitAndAssign>::bitand_assign
                0x00000000002530f8                <core::net::ip_addr::Ipv6Addr as core::ops::bit::BitAndAssign<&core::net::ip_addr::Ipv6Addr>>::bitand_assign
                0x0000000000253148                <core::net::ip_addr::Ipv6Addr as core::ops::bit::BitOrAssign>::bitor_assign
                0x0000000000253218                <core::net::ip_addr::Ipv6Addr as core::ops::bit::BitOrAssign<&core::net::ip_addr::Ipv6Addr>>::bitor_assign
                0x0000000000253268                <core::sync::atomic::AtomicI8 as core::fmt::Debug>::fmt
                0x00000000002532a8                <core::sync::atomic::AtomicU8 as core::fmt::Debug>::fmt
                0x00000000002532e8                <core::sync::atomic::AtomicI16 as core::fmt::Debug>::fmt
                0x0000000000253328                <core::sync::atomic::AtomicU16 as core::fmt::Debug>::fmt
                0x0000000000253368                <core::sync::atomic::AtomicI32 as core::fmt::Debug>::fmt
                0x00000000002533a8                <core::sync::atomic::AtomicU32 as core::fmt::Debug>::fmt
                0x00000000002533f4                <core::sync::atomic::AtomicIsize as core::fmt::Debug>::fmt
                0x00000000002533f4                <core::sync::atomic::AtomicI64 as core::fmt::Debug>::fmt
                0x0000000000253434                <core::sync::atomic::AtomicU64 as core::fmt::Debug>::fmt
                0x0000000000253474                <core::sync::atomic::AtomicI128 as core::fmt::Debug>::fmt
                0x00000000002534bc                <core::sync::atomic::AtomicU128 as core::fmt::Debug>::fmt
                0x0000000000253504                <core::sync::atomic::AtomicUsize as core::fmt::Debug>::fmt
                0x0000000000253550                <f32 as core::fmt::float::GeneralFormat>::already_rounded_value_should_use_exponential
                0x00000000002535c0                <f64 as core::fmt::float::GeneralFormat>::already_rounded_value_should_use_exponential
                0x0000000000253624                core::fmt::float::<impl core::fmt::Debug for f32>::fmt
                0x0000000000253780                core::fmt::float::<impl core::fmt::Display for f32>::fmt
                0x000000000025383c                core::fmt::float::<impl core::fmt::LowerExp for f32>::fmt
                0x0000000000253910                core::fmt::float::<impl core::fmt::UpperExp for f32>::fmt
                0x00000000002539e4                core::fmt::float::<impl core::fmt::Debug for f64>::fmt
                0x0000000000253b38                core::fmt::float::<impl core::fmt::Display for f64>::fmt
                0x0000000000253bf4                core::fmt::float::<impl core::fmt::LowerExp for f64>::fmt
                0x0000000000253cc8                core::fmt::float::<impl core::fmt::UpperExp for f64>::fmt
                0x0000000000253d9c                <core::fmt::num::Binary as core::fmt::num::GenericRadix>::digit
                0x0000000000253e7c                <core::fmt::num::Octal as core::fmt::num::GenericRadix>::digit
                0x0000000000253f5c                <core::fmt::num::LowerHex as core::fmt::num::GenericRadix>::digit
                0x0000000000254068                <core::fmt::num::UpperHex as core::fmt::num::GenericRadix>::digit
                0x0000000000254174                core::fmt::num::<impl core::fmt::Binary for u8>::fmt
                0x0000000000254174                core::fmt::num::<impl core::fmt::Binary for i8>::fmt
                0x0000000000254268                core::fmt::num::<impl core::fmt::Octal for u8>::fmt
                0x0000000000254268                core::fmt::num::<impl core::fmt::Octal for i8>::fmt
                0x000000000025435c                core::fmt::num::<impl core::fmt::LowerHex for u8>::fmt
                0x000000000025435c                core::fmt::num::<impl core::fmt::LowerHex for i8>::fmt
                0x0000000000254460                core::fmt::num::<impl core::fmt::UpperHex for u8>::fmt
                0x0000000000254460                core::fmt::num::<impl core::fmt::UpperHex for i8>::fmt
                0x0000000000254564                core::fmt::num::<impl core::fmt::Binary for i16>::fmt
                0x0000000000254564                core::fmt::num::<impl core::fmt::Binary for u16>::fmt
                0x0000000000254658                core::fmt::num::<impl core::fmt::Octal for u16>::fmt
                0x0000000000254658                core::fmt::num::<impl core::fmt::Octal for i16>::fmt
                0x000000000025474c                core::fmt::num::<impl core::fmt::LowerHex for i16>::fmt
                0x000000000025474c                core::fmt::num::<impl core::fmt::LowerHex for u16>::fmt
                0x0000000000254850                core::fmt::num::<impl core::fmt::UpperHex for i16>::fmt
                0x0000000000254850                core::fmt::num::<impl core::fmt::UpperHex for u16>::fmt
                0x0000000000254954                core::fmt::num::<impl core::fmt::Binary for u32>::fmt
                0x0000000000254954                core::fmt::num::<impl core::fmt::Binary for i32>::fmt
                0x0000000000254a48                core::fmt::num::<impl core::fmt::Octal for u32>::fmt
                0x0000000000254a48                core::fmt::num::<impl core::fmt::Octal for i32>::fmt
                0x0000000000254b3c                core::fmt::num::<impl core::fmt::LowerHex for u32>::fmt
                0x0000000000254b3c                core::fmt::num::<impl core::fmt::LowerHex for i32>::fmt
                0x0000000000254c40                core::fmt::num::<impl core::fmt::UpperHex for u32>::fmt
                0x0000000000254c40                core::fmt::num::<impl core::fmt::UpperHex for i32>::fmt
                0x0000000000254d44                core::fmt::num::<impl core::fmt::Binary for usize>::fmt
                0x0000000000254d44                core::fmt::num::<impl core::fmt::Binary for isize>::fmt
                0x0000000000254d44                core::fmt::num::<impl core::fmt::Binary for i64>::fmt
                0x0000000000254d44                core::fmt::num::<impl core::fmt::Binary for u64>::fmt
                0x0000000000254e38                core::fmt::num::<impl core::fmt::Octal for i64>::fmt
                0x0000000000254e38                core::fmt::num::<impl core::fmt::Octal for usize>::fmt
                0x0000000000254e38                core::fmt::num::<impl core::fmt::Octal for isize>::fmt
                0x0000000000254e38                core::fmt::num::<impl core::fmt::Octal for u64>::fmt
                0x0000000000254f2c                core::fmt::num::<impl core::fmt::LowerHex for isize>::fmt
                0x0000000000254f2c                core::fmt::num::<impl core::fmt::LowerHex for usize>::fmt
                0x0000000000254f2c                core::fmt::num::<impl core::fmt::LowerHex for u64>::fmt
                0x0000000000254f2c                core::fmt::num::<impl core::fmt::LowerHex for i64>::fmt
                0x0000000000255030                core::fmt::num::<impl core::fmt::UpperHex for isize>::fmt
                0x0000000000255030                core::fmt::num::<impl core::fmt::UpperHex for usize>::fmt
                0x0000000000255030                core::fmt::num::<impl core::fmt::UpperHex for u64>::fmt
                0x0000000000255030                core::fmt::num::<impl core::fmt::UpperHex for i64>::fmt
                0x0000000000255134                core::fmt::num::<impl core::fmt::Binary for i128>::fmt
                0x0000000000255134                core::fmt::num::<impl core::fmt::Binary for u128>::fmt
                0x000000000025529c                core::fmt::num::<impl core::fmt::Octal for i128>::fmt
                0x000000000025529c                core::fmt::num::<impl core::fmt::Octal for u128>::fmt
                0x0000000000255404                core::fmt::num::<impl core::fmt::LowerHex for u128>::fmt
                0x0000000000255404                core::fmt::num::<impl core::fmt::LowerHex for i128>::fmt
                0x000000000025557c                core::fmt::num::<impl core::fmt::UpperHex for i128>::fmt
                0x000000000025557c                core::fmt::num::<impl core::fmt::UpperHex for u128>::fmt
                0x00000000002581ec                core::fmt::num::imp::<impl core::fmt::Display for u8>::fmt
                0x0000000000258378                core::fmt::num::imp::<impl core::fmt::Display for i8>::fmt
                0x000000000025850c                core::fmt::num::imp::<impl core::fmt::Display for u16>::fmt
                0x000000000025874c                core::fmt::num::imp::<impl core::fmt::Display for i16>::fmt
                0x00000000002589a8                core::fmt::num::imp::<impl core::fmt::Display for u32>::fmt
                0x0000000000258c2c                core::fmt::num::imp::<impl core::fmt::Display for i32>::fmt
                0x0000000000258ec4                core::fmt::num::imp::<impl core::fmt::Display for usize>::fmt
                0x0000000000258ec4                core::fmt::num::imp::<impl core::fmt::Display for u64>::fmt
                0x000000000025914c                core::fmt::num::imp::<impl core::fmt::Display for isize>::fmt
                0x000000000025914c                core::fmt::num::imp::<impl core::fmt::Display for i64>::fmt
                0x0000000000259ce8                core::fmt::num::imp::<impl core::fmt::LowerExp for i8>::fmt
                0x0000000000259d44                core::fmt::num::imp::<impl core::fmt::LowerExp for u8>::fmt
                0x0000000000259d8c                core::fmt::num::imp::<impl core::fmt::LowerExp for i16>::fmt
                0x0000000000259de8                core::fmt::num::imp::<impl core::fmt::LowerExp for u16>::fmt
                0x0000000000259e30                core::fmt::num::imp::<impl core::fmt::LowerExp for i32>::fmt
                0x0000000000259e8c                core::fmt::num::imp::<impl core::fmt::LowerExp for u32>::fmt
                0x0000000000259ed4                core::fmt::num::imp::<impl core::fmt::LowerExp for isize>::fmt
                0x0000000000259ed4                core::fmt::num::imp::<impl core::fmt::LowerExp for i64>::fmt
                0x0000000000259f30                core::fmt::num::imp::<impl core::fmt::LowerExp for u64>::fmt
                0x0000000000259f30                core::fmt::num::imp::<impl core::fmt::LowerExp for usize>::fmt
                0x0000000000259f78                core::fmt::num::imp::<impl core::fmt::UpperExp for i8>::fmt
                0x0000000000259fd4                core::fmt::num::imp::<impl core::fmt::UpperExp for u8>::fmt
                0x000000000025a01c                core::fmt::num::imp::<impl core::fmt::UpperExp for i16>::fmt
                0x000000000025a078                core::fmt::num::imp::<impl core::fmt::UpperExp for u16>::fmt
                0x000000000025a0c0                core::fmt::num::imp::<impl core::fmt::UpperExp for i32>::fmt
                0x000000000025a11c                core::fmt::num::imp::<impl core::fmt::UpperExp for u32>::fmt
                0x000000000025a164                core::fmt::num::imp::<impl core::fmt::UpperExp for isize>::fmt
                0x000000000025a164                core::fmt::num::imp::<impl core::fmt::UpperExp for i64>::fmt
                0x000000000025a1c0                core::fmt::num::imp::<impl core::fmt::UpperExp for u64>::fmt
                0x000000000025a1c0                core::fmt::num::imp::<impl core::fmt::UpperExp for usize>::fmt
                0x000000000025af08                core::fmt::num::<impl core::fmt::LowerExp for i128>::fmt
                0x000000000025af70                core::fmt::num::<impl core::fmt::LowerExp for u128>::fmt
                0x000000000025afb8                core::fmt::num::<impl core::fmt::UpperExp for i128>::fmt
                0x000000000025b020                core::fmt::num::<impl core::fmt::UpperExp for u128>::fmt
                0x000000000025b604                core::slice::index::slice_start_index_len_fail::do_panic::runtime
                0x000000000025b67c                core::slice::index::slice_end_index_len_fail::do_panic::runtime
                0x000000000025b6f4                core::slice::index::slice_index_order_fail::do_panic::runtime
                0x000000000025b76c                core::slice::<impl [T]>::copy_from_slice::len_mismatch_fail::do_panic::runtime
                0x000000000025b7e8                <core::str::iter::EscapeDebug as core::fmt::Display>::fmt
                0x000000000025d040                <core::str::iter::EscapeDefault as core::fmt::Display>::fmt
                0x000000000025d92c                <core::str::iter::EscapeUnicode as core::fmt::Display>::fmt
                0x000000000025e014                core::unicode::unicode_data::alphabetic::lookup
                0x000000000025e314                core::unicode::unicode_data::case_ignorable::lookup
                0x000000000025e61c                core::unicode::unicode_data::cased::lookup
                0x000000000025e90c                core::unicode::unicode_data::cc::lookup
                0x000000000025e954                core::unicode::unicode_data::grapheme_extend::lookup_slow
                0x000000000025ec58                core::unicode::unicode_data::lowercase::lookup
                0x000000000025ef08                core::unicode::unicode_data::n::lookup
                0x000000000025f210                core::unicode::unicode_data::uppercase::lookup
                0x000000000025f4c0                core::unicode::unicode_data::conversions::to_lower
                0x000000000025f74c                core::unicode::unicode_data::conversions::to_upper
 .text          0x000000000025fa74      0x4d0 /tmp/tmp.bRvc12isai.o
                0x000000000025fa74                std_detect::detect::arch::aarch64::Feature::to_str
 .text          0x000000000025ff44      0xf04 /tmp/tmp.pLiPOMntxt.o
                0x000000000025ff44                std::io::error::Error::new
                0x0000000000260318                <rand_core::error::Error as core::fmt::Debug>::fmt
                0x0000000000260390                <rand_core::error::Error as core::fmt::Display>::fmt
                0x0000000000260438                <rand_core::error::ErrorCode as core::fmt::Display>::fmt
                0x00000000002604ac                rand_core::impls::fill_via_u32_chunks
                0x00000000002605dc                rand_core::impls::fill_via_u64_chunks
                0x000000000026070c                <rand_core::os::OsRng as rand_core::RngCore>::next_u32
                0x0000000000260748                <rand_core::os::OsRng as rand_core::RngCore>::next_u64
                0x0000000000260784                <rand_core::os::OsRng as rand_core::RngCore>::fill_bytes
                0x0000000000260934                <rand_core::os::OsRng as rand_core::RngCore>::try_fill_bytes
                0x0000000000260a50                rand_core::SeedableRng::seed_from_u64::pcg32
                0x0000000000260ac4                <dyn rand_core::RngCore as std::io::Read>::read
 .text          0x0000000000260e48     0x9728 /tmp/tmp.HDPuaqhhZu.o
                0x0000000000260e48                <simba::simd::auto_simd_impl::AutoSimd<[f32; 2]> as core::fmt::Display>::fmt
                0x0000000000260f74                <simba::simd::auto_simd_impl::AutoSimd<[f32; 4]> as core::fmt::Display>::fmt
                0x0000000000261164                <simba::simd::auto_simd_impl::AutoSimd<[f32; 8]> as core::fmt::Display>::fmt
                0x0000000000261494                <simba::simd::auto_simd_impl::AutoSimd<[f32; 16]> as core::fmt::Display>::fmt
                0x0000000000261a44                <simba::simd::auto_simd_impl::AutoSimd<[f64; 2]> as core::fmt::Display>::fmt
                0x0000000000261b70                <simba::simd::auto_simd_impl::AutoSimd<[f64; 4]> as core::fmt::Display>::fmt
                0x0000000000261d60                <simba::simd::auto_simd_impl::AutoSimd<[f64; 8]> as core::fmt::Display>::fmt
                0x0000000000262090                <simba::simd::auto_simd_impl::AutoSimd<[i128; 1]> as core::fmt::Display>::fmt
                0x00000000002620e4                <simba::simd::auto_simd_impl::AutoSimd<[i128; 2]> as core::fmt::Display>::fmt
                0x0000000000262214                <simba::simd::auto_simd_impl::AutoSimd<[i128; 4]> as core::fmt::Display>::fmt
                0x0000000000262408                <simba::simd::auto_simd_impl::AutoSimd<[i16; 2]> as core::fmt::Display>::fmt
                0x0000000000262534                <simba::simd::auto_simd_impl::AutoSimd<[i16; 4]> as core::fmt::Display>::fmt
                0x0000000000262724                <simba::simd::auto_simd_impl::AutoSimd<[i16; 8]> as core::fmt::Display>::fmt
                0x0000000000262a54                <simba::simd::auto_simd_impl::AutoSimd<[i16; 16]> as core::fmt::Display>::fmt
                0x0000000000263004                <simba::simd::auto_simd_impl::AutoSimd<[i16; 32]> as core::fmt::Display>::fmt
                0x00000000002631bc                <simba::simd::auto_simd_impl::AutoSimd<[i32; 2]> as core::fmt::Display>::fmt
                0x00000000002632e8                <simba::simd::auto_simd_impl::AutoSimd<[i32; 4]> as core::fmt::Display>::fmt
                0x00000000002634d8                <simba::simd::auto_simd_impl::AutoSimd<[i32; 8]> as core::fmt::Display>::fmt
                0x0000000000263808                <simba::simd::auto_simd_impl::AutoSimd<[i32; 16]> as core::fmt::Display>::fmt
                0x0000000000263db8                <simba::simd::auto_simd_impl::AutoSimd<[i64; 2]> as core::fmt::Display>::fmt
                0x0000000000263ee4                <simba::simd::auto_simd_impl::AutoSimd<[i64; 4]> as core::fmt::Display>::fmt
                0x00000000002640d4                <simba::simd::auto_simd_impl::AutoSimd<[i64; 8]> as core::fmt::Display>::fmt
                0x0000000000264404                <simba::simd::auto_simd_impl::AutoSimd<[i8; 2]> as core::fmt::Display>::fmt
                0x0000000000264530                <simba::simd::auto_simd_impl::AutoSimd<[i8; 4]> as core::fmt::Display>::fmt
                0x0000000000264720                <simba::simd::auto_simd_impl::AutoSimd<[i8; 8]> as core::fmt::Display>::fmt
                0x0000000000264a50                <simba::simd::auto_simd_impl::AutoSimd<[i8; 16]> as core::fmt::Display>::fmt
                0x0000000000265000                <simba::simd::auto_simd_impl::AutoSimd<[i8; 32]> as core::fmt::Display>::fmt
                0x00000000002651b8                <simba::simd::auto_simd_impl::AutoSimd<[isize; 2]> as core::fmt::Display>::fmt
                0x00000000002652e4                <simba::simd::auto_simd_impl::AutoSimd<[isize; 4]> as core::fmt::Display>::fmt
                0x00000000002654d4                <simba::simd::auto_simd_impl::AutoSimd<[isize; 8]> as core::fmt::Display>::fmt
                0x0000000000265804                <simba::simd::auto_simd_impl::AutoSimd<[u128; 1]> as core::fmt::Display>::fmt
                0x0000000000265858                <simba::simd::auto_simd_impl::AutoSimd<[u128; 2]> as core::fmt::Display>::fmt
                0x0000000000265988                <simba::simd::auto_simd_impl::AutoSimd<[u128; 4]> as core::fmt::Display>::fmt
                0x0000000000265b7c                <simba::simd::auto_simd_impl::AutoSimd<[u16; 2]> as core::fmt::Display>::fmt
                0x0000000000265ca8                <simba::simd::auto_simd_impl::AutoSimd<[u16; 4]> as core::fmt::Display>::fmt
                0x0000000000265e98                <simba::simd::auto_simd_impl::AutoSimd<[u16; 8]> as core::fmt::Display>::fmt
                0x00000000002661c8                <simba::simd::auto_simd_impl::AutoSimd<[u16; 16]> as core::fmt::Display>::fmt
                0x0000000000266778                <simba::simd::auto_simd_impl::AutoSimd<[u16; 32]> as core::fmt::Display>::fmt
                0x0000000000266930                <simba::simd::auto_simd_impl::AutoSimd<[u32; 2]> as core::fmt::Display>::fmt
                0x0000000000266a5c                <simba::simd::auto_simd_impl::AutoSimd<[u32; 4]> as core::fmt::Display>::fmt
                0x0000000000266c4c                <simba::simd::auto_simd_impl::AutoSimd<[u32; 8]> as core::fmt::Display>::fmt
                0x0000000000266f7c                <simba::simd::auto_simd_impl::AutoSimd<[u32; 16]> as core::fmt::Display>::fmt
                0x000000000026752c                <simba::simd::auto_simd_impl::AutoSimd<[u64; 2]> as core::fmt::Display>::fmt
                0x0000000000267658                <simba::simd::auto_simd_impl::AutoSimd<[u64; 4]> as core::fmt::Display>::fmt
                0x0000000000267848                <simba::simd::auto_simd_impl::AutoSimd<[u64; 8]> as core::fmt::Display>::fmt
                0x0000000000267b78                <simba::simd::auto_simd_impl::AutoSimd<[u8; 2]> as core::fmt::Display>::fmt
                0x0000000000267ca4                <simba::simd::auto_simd_impl::AutoSimd<[u8; 4]> as core::fmt::Display>::fmt
                0x0000000000267e94                <simba::simd::auto_simd_impl::AutoSimd<[u8; 8]> as core::fmt::Display>::fmt
                0x00000000002681c4                <simba::simd::auto_simd_impl::AutoSimd<[u8; 16]> as core::fmt::Display>::fmt
                0x0000000000268774                <simba::simd::auto_simd_impl::AutoSimd<[u8; 32]> as core::fmt::Display>::fmt
                0x000000000026892c                <simba::simd::auto_simd_impl::AutoSimd<[usize; 2]> as core::fmt::Display>::fmt
                0x0000000000268a58                <simba::simd::auto_simd_impl::AutoSimd<[usize; 4]> as core::fmt::Display>::fmt
                0x0000000000268c48                <simba::simd::auto_simd_impl::AutoSimd<[usize; 8]> as core::fmt::Display>::fmt
                0x0000000000268f78                <simba::simd::auto_simd_impl::AutoSimd<[bool; 1]> as core::ops::bit::BitAnd>::bitand
                0x0000000000268fcc                <simba::simd::auto_simd_impl::AutoSimd<[bool; 1]> as core::ops::bit::BitOr>::bitor
                0x0000000000269020                <simba::simd::auto_simd_impl::AutoSimd<[bool; 1]> as core::ops::bit::BitXor>::bitxor
                0x0000000000269078                <simba::simd::auto_simd_impl::AutoSimd<[bool; 2]> as core::ops::bit::BitAnd>::bitand
                0x00000000002690dc                <simba::simd::auto_simd_impl::AutoSimd<[bool; 2]> as core::ops::bit::BitOr>::bitor
                0x0000000000269140                <simba::simd::auto_simd_impl::AutoSimd<[bool; 2]> as core::ops::bit::BitXor>::bitxor
                0x00000000002691ac                <simba::simd::auto_simd_impl::AutoSimd<[bool; 4]> as core::ops::bit::BitAnd>::bitand
                0x000000000026920c                <simba::simd::auto_simd_impl::AutoSimd<[bool; 4]> as core::ops::bit::BitOr>::bitor
                0x000000000026926c                <simba::simd::auto_simd_impl::AutoSimd<[bool; 4]> as core::ops::bit::BitXor>::bitxor
                0x00000000002692d4                <simba::simd::auto_simd_impl::AutoSimd<[bool; 8]> as core::ops::bit::BitAnd>::bitand
                0x0000000000269328                <simba::simd::auto_simd_impl::AutoSimd<[bool; 8]> as core::ops::bit::BitOr>::bitor
                0x000000000026937c                <simba::simd::auto_simd_impl::AutoSimd<[bool; 8]> as core::ops::bit::BitXor>::bitxor
                0x00000000002693d8                <simba::simd::auto_simd_impl::AutoSimd<[bool; 16]> as core::ops::bit::BitAnd>::bitand
                0x000000000026942c                <simba::simd::auto_simd_impl::AutoSimd<[bool; 16]> as core::ops::bit::BitOr>::bitor
                0x0000000000269480                <simba::simd::auto_simd_impl::AutoSimd<[bool; 16]> as core::ops::bit::BitXor>::bitxor
                0x00000000002694dc                <simba::simd::auto_simd_impl::AutoSimd<[bool; 32]> as core::ops::bit::BitAnd>::bitand
                0x0000000000269534                <simba::simd::auto_simd_impl::AutoSimd<[bool; 32]> as core::ops::bit::BitOr>::bitor
                0x000000000026958c                <simba::simd::auto_simd_impl::AutoSimd<[bool; 32]> as core::ops::bit::BitXor>::bitxor
                0x00000000002695f0                <simba::simd::auto_simd_impl::AutoSimd<[bool; 1]> as core::fmt::Display>::fmt
                0x000000000026963c                <simba::simd::auto_simd_impl::AutoSimd<[bool; 2]> as core::fmt::Display>::fmt
                0x0000000000269768                <simba::simd::auto_simd_impl::AutoSimd<[bool; 4]> as core::fmt::Display>::fmt
                0x0000000000269958                <simba::simd::auto_simd_impl::AutoSimd<[bool; 8]> as core::fmt::Display>::fmt
                0x0000000000269c88                <simba::simd::auto_simd_impl::AutoSimd<[bool; 16]> as core::fmt::Display>::fmt
                0x000000000026a238                <simba::simd::auto_simd_impl::AutoSimd<[bool; 32]> as core::fmt::Display>::fmt
                0x000000000026a3f0                simba::simd::wide_simd_impl::WideBoolF32x4::from_arr
                0x000000000026a430                simba::simd::wide_simd_impl::WideBoolF32x4::into_arr
                0x000000000026a470                simba::simd::wide_simd_impl::WideBoolF64x4::from_arr
                0x000000000026a4b0                simba::simd::wide_simd_impl::WideBoolF64x4::into_arr
                0x000000000026a4f0                simba::simd::wide_simd_impl::WideBoolF32x8::from_arr
                0x000000000026a530                simba::simd::wide_simd_impl::WideBoolF32x8::into_arr
 .text          0x000000000026a570     0xc384 /tmp/tmp.jmwwJDUOZj.o
                0x000000000026a570                matrixmultiply::gemm::sgemm
                0x000000000026a634                matrixmultiply::gemm::dgemm
                0x000000000026a6f8                matrixmultiply::gemm::cgemm
                0x000000000026a7a4                matrixmultiply::gemm::zgemm
                0x000000000026a87c                matrixmultiply::gemm::gemm_loop
                0x000000000026c02c                matrixmultiply::gemm::gemm_loop
                0x000000000026d770                matrixmultiply::gemm::gemm_loop
                0x000000000026edac                matrixmultiply::gemm::gemm_loop
                0x0000000000270358                matrixmultiply::gemm::masked_kernel
                0x0000000000270ca8                matrixmultiply::gemm::masked_kernel
                0x0000000000272604                matrixmultiply::gemm::masked_kernel
                0x0000000000273f78                matrixmultiply::gemm::masked_kernel
                0x000000000027486c                matrixmultiply::gemm::c_to_beta_c
                0x0000000000274c68                matrixmultiply::gemm::c_to_beta_c
                0x0000000000274fc0                matrixmultiply::gemm::c_to_beta_c
                0x0000000000275344                matrixmultiply::gemm::c_to_beta_c
                0x000000000027569c                <[f32; 2] as matrixmultiply::kernel::Element>::is_zero
                0x00000000002756e4                <[f64; 2] as matrixmultiply::kernel::Element>::is_zero
                0x000000000027572c                matrixmultiply::dgemm_kernel::kernel_target_neon
                0x0000000000275ef8                matrixmultiply::sgemm_kernel::kernel_target_neon
 .text          0x00000000002768f4     0x696c /tmp/tmp.ORH0yeivYX.o
                0x0000000000276b10                memchr::arch::all::memchr::One::iter
                0x0000000000276b64                memchr::arch::all::memchr::Two::iter
                0x0000000000276bb8                memchr::arch::all::memchr::Three::iter
                0x0000000000276c0c                <memchr::arch::all::packedpair::DefaultFrequencyRank as memchr::arch::all::packedpair::HeuristicFrequencyRank>::rank
                0x0000000000276c48                memchr::arch::all::twoway::Shift::forward
                0x0000000000276f7c                memchr::arch::all::twoway::Shift::reverse
                0x00000000002772b4                memchr::arch::all::twoway::Suffix::forward
                0x000000000027763c                memchr::arch::all::twoway::Suffix::reverse
                0x0000000000277a44                memchr::arch::all::twoway::ApproximateByteSet::new
                0x0000000000277f80                <memchr::memmem::searcher::Searcher as core::fmt::Debug>::fmt
                0x000000000027803c                memchr::memmem::searcher::searcher_kind_one_byte
                0x00000000002785d0                memchr::memmem::searcher::searcher_kind_two_way
                0x0000000000279144                memchr::memmem::searcher::searcher_kind_two_way_with_prefilter
                0x000000000027a034                memchr::memmem::searcher::searcher_kind_neon
                0x000000000027ad4c                <memchr::memmem::searcher::Prefilter as core::fmt::Debug>::fmt
                0x000000000027ae24                memchr::memmem::searcher::prefilter_kind_fallback
                0x000000000027b4c4                memchr::memmem::searcher::prefilter_kind_neon
                0x000000000027bd3c                <memchr::memmem::FindIter as core::iter::traits::iterator::Iterator>::next
                0x000000000027be60                <memchr::memmem::FindIter as core::iter::traits::iterator::Iterator>::size_hint
                0x000000000027bf80                <memchr::memmem::FindRevIter as core::iter::traits::iterator::Iterator>::next
 .text          0x000000000027d260     0x1178 /tmp/tmp.18nOMT9MRe.o
                0x000000000027d260                <rand_distr::binomial::Error as core::fmt::Display>::fmt
                0x000000000027d2cc                rand_distr::binomial::f64_to_i64
                0x000000000027d364                <rand_distr::cauchy::Error as core::fmt::Display>::fmt
                0x000000000027d3a0                <rand_distr::exponential::Error as core::fmt::Display>::fmt
                0x000000000027d3dc                <rand_distr::frechet::Error as core::fmt::Display>::fmt
                0x000000000027d440                <rand_distr::gamma::Error as core::fmt::Display>::fmt
                0x000000000027d4a4                <rand_distr::gamma::ChiSquaredError as core::fmt::Display>::fmt
                0x000000000027d4e0                <rand_distr::gamma::FisherFError as core::fmt::Display>::fmt
                0x000000000027d544                <rand_distr::gamma::BetaError as core::fmt::Display>::fmt
                0x000000000027d5ac                <rand_distr::geometric::Error as core::fmt::Display>::fmt
                0x000000000027d5e8                rand_distr::geometric::Geometric::new
                0x000000000027d7a0                <rand_distr::gumbel::Error as core::fmt::Display>::fmt
                0x000000000027d80c                <rand_distr::hypergeometric::Error as core::fmt::Display>::fmt
                0x000000000027d870                rand_distr::hypergeometric::ln_of_factorial
                0x000000000027d8bc                rand_distr::hypergeometric::Hypergeometric::new
                0x000000000027dfb0                <rand_distr::inverse_gaussian::Error as core::fmt::Display>::fmt
                0x000000000027e018                <rand_distr::normal::Error as core::fmt::Display>::fmt
                0x000000000027e084                <rand_distr::normal_inverse_gaussian::Error as core::fmt::Display>::fmt
                0x000000000027e0f0                <rand_distr::pareto::Error as core::fmt::Display>::fmt
                0x000000000027e154                <rand_distr::pert::PertError as core::fmt::Display>::fmt
                0x000000000027e1b8                <rand_distr::poisson::Error as core::fmt::Display>::fmt
                0x000000000027e1f4                <rand_distr::skew_normal::Error as core::fmt::Display>::fmt
                0x000000000027e260                <rand_distr::triangular::TriangularError as core::fmt::Display>::fmt
                0x000000000027e2cc                <rand_distr::weibull::Error as core::fmt::Display>::fmt
                0x000000000027e330                <rand_distr::zipf::ZetaError as core::fmt::Display>::fmt
                0x000000000027e36c                <rand_distr::zipf::ZipfError as core::fmt::Display>::fmt
 .text          0x000000000027e3d8      0x4dc /tmp/tmp.cDPw3yBmbF.o
                0x000000000027e4c4                <hashbrown::control::tag::Tag as core::fmt::Debug>::fmt
                0x000000000027e5f4                hashbrown::raw::Fallibility::capacity_overflow
                0x000000000027e650                hashbrown::raw::Fallibility::alloc_err
                0x000000000027e69c                hashbrown::raw::RawIterHashInner::new
                0x000000000027e714                <hashbrown::raw::RawIterHashInner as core::iter::traits::iterator::Iterator>::next
 .text          0x000000000027e8b4     0x58ac /tmp/tmp.ROpYMn2IxR.o
                0x000000000027eb88                <u8 as num_integer::roots::Roots>::nth_root::go
                0x000000000027f698                <u8 as num_integer::roots::Roots>::sqrt::go
                0x000000000027f8e4                <u8 as num_integer::roots::Roots>::cbrt::go
                0x000000000027f9d0                <u16 as num_integer::roots::Roots>::nth_root::go
                0x0000000000280434                <u16 as num_integer::roots::Roots>::sqrt::go
                0x0000000000280680                <u16 as num_integer::roots::Roots>::cbrt::go
                0x00000000002808d4                <u32 as num_integer::roots::Roots>::nth_root::go
                0x0000000000281300                <u32 as num_integer::roots::Roots>::sqrt::go
                0x0000000000281520                <u32 as num_integer::roots::Roots>::cbrt::go
                0x00000000002819a8                <u64 as num_integer::roots::Roots>::nth_root::go
                0x00000000002824c4                <u64 as num_integer::roots::Roots>::sqrt::go
                0x00000000002826e4                <u64 as num_integer::roots::Roots>::cbrt::go
                0x00000000002829c0                <u128 as num_integer::roots::Roots>::nth_root::go
                0x0000000000282dd0                <u128 as num_integer::roots::Roots>::sqrt::go
                0x0000000000283084                <u128 as num_integer::roots::Roots>::cbrt::go
                0x0000000000283164                <usize as num_integer::roots::Roots>::nth_root::go
                0x0000000000283c64                <usize as num_integer::roots::Roots>::sqrt::go
                0x0000000000283e84                <usize as num_integer::roots::Roots>::cbrt::go
 .text          0x0000000000284160     0x2408 /tmp/tmp.mK74ILubrR.o
                0x00000000002844e4                alloc::rc::Rc<T,A>::drop_slow
                0x00000000002856bc                <rand::distributions::bernoulli::BernoulliError as core::fmt::Display>::fmt
                0x00000000002856f8                <rand::distributions::slice::EmptySlice as core::fmt::Display>::fmt
                0x0000000000285738                <rand::distributions::weighted_index::WeightedError as core::fmt::Display>::fmt
                0x000000000028579c                <rand::rngs::adapter::read::ReadError as core::fmt::Display>::fmt
                0x0000000000285810                rand::rngs::adapter::reseeding::ReseedingCore<R,Rsdr>::reseed_and_generate
                0x0000000000285a7c                rand::rngs::adapter::reseeding::fork::get_fork_counter
                0x0000000000285ac0                rand::rngs::adapter::reseeding::fork::register_fork_handler
                0x0000000000285b60                <rand::rngs::xoshiro256plusplus::Xoshiro256PlusPlus as rand_core::SeedableRng>::seed_from_u64
                0x0000000000285d6c                <rand::rngs::thread::ThreadRng as core::default::Default>::default
                0x0000000000285d6c                rand::rngs::thread::thread_rng
                0x0000000000285e70                <rand::rngs::thread::ThreadRng as rand_core::RngCore>::fill_bytes
                0x0000000000286054                <rand::rngs::thread::ThreadRng as rand_core::RngCore>::try_fill_bytes
                0x000000000028623c                <rand::seq::index::IndexVec as core::cmp::PartialEq>::eq
 .text          0x0000000000286568      0x100 /tmp/tmp.YRYzENnSY1.o
                0x0000000000286568                zerocopy::byteorder::f32_ext::from_be_bytes
                0x00000000002865a4                zerocopy::byteorder::f32_ext::to_be_bytes
                0x00000000002865e8                zerocopy::byteorder::f64_ext::from_be_bytes
                0x0000000000286624                zerocopy::byteorder::f64_ext::to_be_bytes
 .text          0x0000000000286668      0xe94 /tmp/tmp.11GKO8fURX.o
                0x00000000002866e8                <num_complex::Complex<T> as core::fmt::LowerExp>::fmt::fmt_re_im
                0x00000000002866e8                <num_complex::Complex<T> as core::fmt::UpperExp>::fmt::fmt_re_im
                0x00000000002866e8                <num_complex::Complex<T> as core::fmt::Display>::fmt::fmt_re_im
                0x0000000000286950                <num_complex::Complex<T> as core::fmt::UpperHex>::fmt::fmt_re_im
                0x0000000000286950                <num_complex::Complex<T> as core::fmt::LowerHex>::fmt::fmt_re_im
                0x0000000000286bcc                <num_complex::Complex<T> as core::fmt::Octal>::fmt::fmt_re_im
                0x0000000000287280                <num_complex::Complex<T> as core::fmt::Binary>::fmt::fmt_re_im
 .text          0x00000000002874fc     0x2f5c /tmp/tmp.S8xLcpI71A.o
                0x00000000002877dc                ryu::pretty::format64
                0x0000000000288bb8                ryu::pretty::format32
 .text          0x000000000028a458     0xd6b0 /tmp/tmp.XCromRbr5b.o
                0x000000000028a548                <num_rational::ParseRatioError as core::fmt::Display>::fmt
                0x000000000028a5b0                <i128 as num_rational::Bits>::bits
                0x000000000028ade4                <num_rational::Ratio<i8> as num_traits::cast::FromPrimitive>::from_i64
                0x000000000028ae30                <num_rational::Ratio<i8> as num_traits::cast::FromPrimitive>::from_i128
                0x000000000028ae90                <num_rational::Ratio<i8> as num_traits::cast::FromPrimitive>::from_u64
                0x000000000028aed8                <num_rational::Ratio<i8> as num_traits::cast::FromPrimitive>::from_u128
                0x000000000028af30                <num_rational::Ratio<i8> as num_traits::cast::FromPrimitive>::from_f32
                0x000000000028b848                <num_rational::Ratio<i8> as num_traits::cast::FromPrimitive>::from_f64
                0x000000000028c174                <num_rational::Ratio<i16> as num_traits::cast::FromPrimitive>::from_i64
                0x000000000028c1c0                <num_rational::Ratio<i16> as num_traits::cast::FromPrimitive>::from_i128
                0x000000000028c220                <num_rational::Ratio<i16> as num_traits::cast::FromPrimitive>::from_u64
                0x000000000028c268                <num_rational::Ratio<i16> as num_traits::cast::FromPrimitive>::from_u128
                0x000000000028c2c0                <num_rational::Ratio<i16> as num_traits::cast::FromPrimitive>::from_f32
                0x000000000028cc08                <num_rational::Ratio<i16> as num_traits::cast::FromPrimitive>::from_f64
                0x000000000028d55c                <num_rational::Ratio<i32> as num_traits::cast::FromPrimitive>::from_i64
                0x000000000028d5d4                <num_rational::Ratio<i32> as num_traits::cast::FromPrimitive>::from_i128
                0x000000000028d65c                <num_rational::Ratio<i32> as num_traits::cast::FromPrimitive>::from_u64
                0x000000000028d6d4                <num_rational::Ratio<i32> as num_traits::cast::FromPrimitive>::from_u128
                0x000000000028d758                <num_rational::Ratio<i32> as num_traits::cast::FromPrimitive>::from_f32
                0x000000000028dfd8                <num_rational::Ratio<i32> as num_traits::cast::FromPrimitive>::from_f64
                0x000000000028e880                <num_rational::Ratio<isize> as num_traits::cast::FromPrimitive>::from_i64
                0x000000000028e880                <num_rational::Ratio<usize> as num_traits::cast::FromPrimitive>::from_u64
                0x000000000028e880                <num_rational::Ratio<i64> as num_traits::cast::FromPrimitive>::from_i64
                0x000000000028e880                <num_rational::Ratio<u64> as num_traits::cast::FromPrimitive>::from_u64
                0x000000000028e8c4                <num_rational::Ratio<i64> as num_traits::cast::FromPrimitive>::from_i128
                0x000000000028e8c4                <num_rational::Ratio<isize> as num_traits::cast::FromPrimitive>::from_i128
                0x000000000028e948                <num_rational::Ratio<u64> as num_traits::cast::FromPrimitive>::from_i64
                0x000000000028e948                <num_rational::Ratio<isize> as num_traits::cast::FromPrimitive>::from_u64
                0x000000000028e948                <num_rational::Ratio<i64> as num_traits::cast::FromPrimitive>::from_u64
                0x000000000028e948                <num_rational::Ratio<usize> as num_traits::cast::FromPrimitive>::from_i64
                0x000000000028e9bc                <num_rational::Ratio<i64> as num_traits::cast::FromPrimitive>::from_u128
                0x000000000028e9bc                <num_rational::Ratio<isize> as num_traits::cast::FromPrimitive>::from_u128
                0x000000000028ea38                <num_rational::Ratio<i64> as num_traits::cast::FromPrimitive>::from_f32
                0x000000000028ea38                <num_rational::Ratio<isize> as num_traits::cast::FromPrimitive>::from_f32
                0x000000000028f2b4                <num_rational::Ratio<i64> as num_traits::cast::FromPrimitive>::from_f64
                0x000000000028f2b4                <num_rational::Ratio<isize> as num_traits::cast::FromPrimitive>::from_f64
                0x000000000028fb4c                <num_rational::Ratio<i128> as num_traits::cast::FromPrimitive>::from_i64
                0x000000000028fb98                <num_rational::Ratio<u128> as num_traits::cast::FromPrimitive>::from_u128
                0x000000000028fb98                <num_rational::Ratio<i128> as num_traits::cast::FromPrimitive>::from_i128
                0x000000000028fbe4                <num_rational::Ratio<u128> as num_traits::cast::FromPrimitive>::from_u64
                0x000000000028fbe4                <num_rational::Ratio<i128> as num_traits::cast::FromPrimitive>::from_u64
                0x000000000028fc2c                <num_rational::Ratio<u128> as num_traits::cast::FromPrimitive>::from_i128
                0x000000000028fc2c                <num_rational::Ratio<i128> as num_traits::cast::FromPrimitive>::from_u128
                0x000000000028fcb0                <num_rational::Ratio<i128> as num_traits::cast::FromPrimitive>::from_f32
                0x00000000002909bc                <num_rational::Ratio<i128> as num_traits::cast::FromPrimitive>::from_f64
                0x00000000002916d4                <num_rational::Ratio<u8> as num_traits::cast::FromPrimitive>::from_i64
                0x00000000002916d4                <num_rational::Ratio<u8> as num_traits::cast::FromPrimitive>::from_u64
                0x000000000029171c                <num_rational::Ratio<u8> as num_traits::cast::FromPrimitive>::from_i128
                0x000000000029171c                <num_rational::Ratio<u8> as num_traits::cast::FromPrimitive>::from_u128
                0x0000000000291774                <num_rational::Ratio<u8> as num_traits::cast::FromPrimitive>::from_f32
                0x0000000000291e34                <num_rational::Ratio<u8> as num_traits::cast::FromPrimitive>::from_f64
                0x0000000000292510                <num_rational::Ratio<u16> as num_traits::cast::FromPrimitive>::from_u64
                0x0000000000292510                <num_rational::Ratio<u16> as num_traits::cast::FromPrimitive>::from_i64
                0x0000000000292558                <num_rational::Ratio<u16> as num_traits::cast::FromPrimitive>::from_u128
                0x0000000000292558                <num_rational::Ratio<u16> as num_traits::cast::FromPrimitive>::from_i128
                0x00000000002925b0                <num_rational::Ratio<u16> as num_traits::cast::FromPrimitive>::from_f32
                0x0000000000292c78                <num_rational::Ratio<u16> as num_traits::cast::FromPrimitive>::from_f64
                0x0000000000293358                <num_rational::Ratio<u32> as num_traits::cast::FromPrimitive>::from_u64
                0x0000000000293358                <num_rational::Ratio<u32> as num_traits::cast::FromPrimitive>::from_i64
                0x00000000002933d0                <num_rational::Ratio<u32> as num_traits::cast::FromPrimitive>::from_u128
                0x00000000002933d0                <num_rational::Ratio<u32> as num_traits::cast::FromPrimitive>::from_i128
                0x0000000000293454                <num_rational::Ratio<u32> as num_traits::cast::FromPrimitive>::from_f32
                0x0000000000293ad4                <num_rational::Ratio<u32> as num_traits::cast::FromPrimitive>::from_f64
                0x000000000029416c                <num_rational::Ratio<u64> as num_traits::cast::FromPrimitive>::from_u128
                0x000000000029416c                <num_rational::Ratio<usize> as num_traits::cast::FromPrimitive>::from_i128
                0x000000000029416c                <num_rational::Ratio<usize> as num_traits::cast::FromPrimitive>::from_u128
                0x000000000029416c                <num_rational::Ratio<u64> as num_traits::cast::FromPrimitive>::from_i128
                0x00000000002941e4                <num_rational::Ratio<usize> as num_traits::cast::FromPrimitive>::from_f32
                0x00000000002941e4                <num_rational::Ratio<u64> as num_traits::cast::FromPrimitive>::from_f32
                0x0000000000294864                <num_rational::Ratio<usize> as num_traits::cast::FromPrimitive>::from_f64
                0x0000000000294864                <num_rational::Ratio<u64> as num_traits::cast::FromPrimitive>::from_f64
                0x0000000000294ee0                <num_rational::Ratio<u128> as num_traits::cast::FromPrimitive>::from_i64
                0x0000000000294f60                <num_rational::Ratio<u128> as num_traits::cast::FromPrimitive>::from_f32
                0x0000000000295990                <num_rational::Ratio<u128> as num_traits::cast::FromPrimitive>::from_f64
                0x00000000002963c8                <num_rational::Ratio<u8> as num_traits::cast::ToPrimitive>::to_i64
                0x00000000002963c8                <num_rational::Ratio<u8> as num_traits::cast::ToPrimitive>::to_u64
                0x0000000000296448                <num_rational::Ratio<u8> as num_traits::cast::ToPrimitive>::to_u128
                0x0000000000296448                <num_rational::Ratio<u8> as num_traits::cast::ToPrimitive>::to_i128
                0x00000000002964f0                <num_rational::Ratio<i8> as num_traits::cast::ToPrimitive>::to_i64
                0x00000000002965d8                <num_rational::Ratio<i8> as num_traits::cast::ToPrimitive>::to_i128
                0x00000000002966ec                <num_rational::Ratio<i8> as num_traits::cast::ToPrimitive>::to_u64
                0x00000000002967f4                <num_rational::Ratio<i8> as num_traits::cast::ToPrimitive>::to_u128
                0x000000000029693c                <num_rational::Ratio<u16> as num_traits::cast::ToPrimitive>::to_i64
                0x000000000029693c                <num_rational::Ratio<u16> as num_traits::cast::ToPrimitive>::to_u64
                0x00000000002969bc                <num_rational::Ratio<u16> as num_traits::cast::ToPrimitive>::to_u128
                0x00000000002969bc                <num_rational::Ratio<u16> as num_traits::cast::ToPrimitive>::to_i128
                0x0000000000296a64                <num_rational::Ratio<i16> as num_traits::cast::ToPrimitive>::to_i64
                0x0000000000296b50                <num_rational::Ratio<i16> as num_traits::cast::ToPrimitive>::to_i128
                0x0000000000296c68                <num_rational::Ratio<i16> as num_traits::cast::ToPrimitive>::to_u64
                0x0000000000296d74                <num_rational::Ratio<i16> as num_traits::cast::ToPrimitive>::to_u128
                0x0000000000296ec0                <num_rational::Ratio<u32> as num_traits::cast::ToPrimitive>::to_i64
                0x0000000000296ec0                <num_rational::Ratio<u32> as num_traits::cast::ToPrimitive>::to_u64
                0x0000000000296f5c                <num_rational::Ratio<u32> as num_traits::cast::ToPrimitive>::to_i128
                0x0000000000296f5c                <num_rational::Ratio<u32> as num_traits::cast::ToPrimitive>::to_u128
                0x0000000000297004                <num_rational::Ratio<i32> as num_traits::cast::ToPrimitive>::to_i64
                0x0000000000297104                <num_rational::Ratio<i32> as num_traits::cast::ToPrimitive>::to_i128
                0x0000000000297214                <num_rational::Ratio<i32> as num_traits::cast::ToPrimitive>::to_u64
                0x0000000000297314                <num_rational::Ratio<i32> as num_traits::cast::ToPrimitive>::to_u128
                0x000000000029744c                <num_rational::Ratio<usize> as num_traits::cast::ToPrimitive>::to_i64
                0x000000000029744c                <num_rational::Ratio<u64> as num_traits::cast::ToPrimitive>::to_i64
                0x00000000002974ec                <num_rational::Ratio<usize> as num_traits::cast::ToPrimitive>::to_i128
                0x00000000002974ec                <num_rational::Ratio<u64> as num_traits::cast::ToPrimitive>::to_i128
                0x00000000002974ec                <num_rational::Ratio<usize> as num_traits::cast::ToPrimitive>::to_u128
                0x00000000002974ec                <num_rational::Ratio<u64> as num_traits::cast::ToPrimitive>::to_u128
                0x0000000000297594                <num_rational::Ratio<u64> as num_traits::cast::ToPrimitive>::to_u64
                0x0000000000297594                <num_rational::Ratio<usize> as num_traits::cast::ToPrimitive>::to_u64
                0x0000000000297630                <num_rational::Ratio<u64> as num_traits::cast::ToPrimitive>::to_f64
                0x0000000000297630                <num_rational::Ratio<usize> as num_traits::cast::ToPrimitive>::to_f64
                0x000000000029767c                <num_rational::Ratio<i64> as num_traits::cast::ToPrimitive>::to_i64
                0x000000000029767c                <num_rational::Ratio<isize> as num_traits::cast::ToPrimitive>::to_i64
                0x0000000000297778                <num_rational::Ratio<i64> as num_traits::cast::ToPrimitive>::to_i128
                0x0000000000297778                <num_rational::Ratio<isize> as num_traits::cast::ToPrimitive>::to_i128
                0x0000000000297884                <num_rational::Ratio<isize> as num_traits::cast::ToPrimitive>::to_u64
                0x0000000000297884                <num_rational::Ratio<i64> as num_traits::cast::ToPrimitive>::to_u64
                0x0000000000297984                <num_rational::Ratio<i64> as num_traits::cast::ToPrimitive>::to_u128
                0x0000000000297984                <num_rational::Ratio<isize> as num_traits::cast::ToPrimitive>::to_u128
                0x0000000000297abc                <num_rational::Ratio<isize> as num_traits::cast::ToPrimitive>::to_f64
                0x0000000000297abc                <num_rational::Ratio<i64> as num_traits::cast::ToPrimitive>::to_f64
 .text          0x0000000000297b08     0xb940 /tmp/tmp.xPd6T95Idf.o
                0x0000000000297f50                alloc::raw_vec::RawVec<T,A>::grow_one
                0x00000000002980c8                alloc::alloc::handle_alloc_error::ct_error
                0x0000000000298118                __rdl_oom
                0x0000000000298210                <alloc::boxed::convert::<impl core::convert::From<alloc::string::String> for alloc::boxed::Box<dyn core::error::Error+core::marker::Sync+core::marker::Send>>::from::StringError as core::error::Error>::description
                0x0000000000298240                <alloc::boxed::convert::<impl core::convert::From<alloc::string::String> for alloc::boxed::Box<dyn core::error::Error+core::marker::Sync+core::marker::Send>>::from::StringError as core::fmt::Display>::fmt
                0x0000000000298280                <alloc::boxed::convert::<impl core::convert::From<alloc::string::String> for alloc::boxed::Box<dyn core::error::Error+core::marker::Sync+core::marker::Send>>::from::StringError as core::fmt::Debug>::fmt
                0x00000000002982c0                alloc::boxed::convert::<impl core::convert::From<alloc::string::String> for alloc::boxed::Box<dyn core::error::Error>>::from
                0x0000000000298404                alloc::boxed::convert::<impl core::convert::From<&str> for alloc::boxed::Box<dyn core::error::Error>>::from
                0x0000000000298614                alloc::boxed::convert::<impl core::convert::From<alloc::borrow::Cow<str>> for alloc::boxed::Box<dyn core::error::Error+core::marker::Sync+core::marker::Send>>::from
                0x00000000002988a8                alloc::boxed::convert::<impl core::convert::From<alloc::borrow::Cow<str>> for alloc::boxed::Box<dyn core::error::Error>>::from
                0x0000000000298b3c                <alloc::boxed::Box<str> as core::clone::Clone>::clone
                0x0000000000298c8c                <alloc::borrow::Cow<str> as core::ops::arith::AddAssign<&str>>::add_assign
                0x00000000002991b8                <alloc::borrow::Cow<str> as core::ops::arith::AddAssign>::add_assign
                0x0000000000299768                <alloc::collections::btree::map::UnorderedKeyError as core::fmt::Display>::fmt
                0x00000000002997a8                <alloc::collections::btree::mem::replace::PanicGuard as core::ops::drop::Drop>::drop
                0x00000000002997cc                <alloc::collections::TryReserveError as core::fmt::Display>::fmt
                0x000000000029987c                alloc::ffi::c_str::FromVecWithNulError::as_bytes
                0x00000000002998ac                <&[u8] as alloc::ffi::c_str::CString::new::SpecNewImpl>::spec_new_impl
                0x00000000002998ac                <&str as alloc::ffi::c_str::CString::new::SpecNewImpl>::spec_new_impl
                0x0000000000299bc4                <&mut [u8] as alloc::ffi::c_str::CString::new::SpecNewImpl>::spec_new_impl
                0x0000000000299edc                alloc::ffi::c_str::CString::from_vec_unchecked
                0x0000000000299f28                alloc::ffi::c_str::CString::_from_vec_unchecked
                0x000000000029a2d4                alloc::ffi::c_str::CString::from_raw
                0x000000000029a31c                alloc::ffi::c_str::CString::into_string
                0x000000000029a518                alloc::ffi::c_str::CString::into_bytes
                0x000000000029a56c                alloc::ffi::c_str::CString::into_bytes_with_nul
                0x000000000029a56c                <alloc::string::String as core::convert::From<alloc::boxed::Box<str>>>::from
                0x000000000029a5b0                alloc::string::<impl core::convert::From<alloc::string::String> for alloc::boxed::Box<str>>::from
                0x000000000029a5b0                alloc::ffi::c_str::CString::from_vec_with_nul_unchecked
                0x000000000029a778                alloc::ffi::c_str::CString::from_vec_with_nul
                0x000000000029ab20                <alloc::ffi::c_str::CString as core::fmt::Debug>::fmt
                0x000000000029ab60                <alloc::ffi::c_str::CString as core::default::Default>::default
                0x000000000029ac00                alloc::ffi::c_str::<impl alloc::borrow::ToOwned for core::ffi::c_str::CStr>::to_owned
                0x000000000029ac00                alloc::ffi::c_str::<impl core::convert::From<&core::ffi::c_str::CStr> for alloc::boxed::Box<core::ffi::c_str::CStr>>::from
                0x000000000029ad4c                alloc::ffi::c_str::<impl core::default::Default for alloc::boxed::Box<core::ffi::c_str::CStr>>::default
                0x000000000029adec                <alloc::ffi::c_str::NulError as core::fmt::Display>::fmt
                0x000000000029ae64                <alloc::ffi::c_str::FromVecWithNulError as core::fmt::Display>::fmt
                0x000000000029af2c                <alloc::ffi::c_str::IntoStringError as core::fmt::Display>::fmt
                0x000000000029af68                alloc::ffi::c_str::<impl alloc::borrow::ToOwned for core::ffi::c_str::CStr>::clone_into
                0x000000000029b21c                <alloc::ffi::c_str::CString as core::convert::From<&core::ffi::c_str::CStr>>::from
                0x000000000029b21c                alloc::ffi::c_str::<impl core::convert::From<&mut core::ffi::c_str::CStr> for alloc::boxed::Box<core::ffi::c_str::CStr>>::from
                0x000000000029b368                alloc::ffi::c_str::<impl core::ffi::c_str::CStr>::to_string_lossy
                0x000000000029b3b8                alloc::ffi::c_str::<impl core::ffi::c_str::CStr>::into_c_string
                0x000000000029b3b8                alloc::ffi::c_str::CString::into_boxed_c_str
                0x000000000029b3bc                alloc::fmt::format::format_inner
                0x000000000029b7d8                alloc::rc::rc_inner_layout_for_value_layout
                0x000000000029b8c4                alloc::str::<impl str>::to_lowercase
                0x000000000029d318                alloc::str::<impl str>::to_uppercase
                0x000000000029e620                alloc::string::String::from_utf8_lossy
                0x000000000029eb44                alloc::string::String::from_utf8_lossy_owned
                0x000000000029ecf0                alloc::string::String::from_utf16
                0x000000000029f350                alloc::string::String::from_utf16le
                0x000000000029fc40                alloc::string::String::from_utf16le_lossy
                0x00000000002a05b0                alloc::string::String::from_utf16be
                0x00000000002a0e18                alloc::string::String::from_utf16be_lossy
                0x00000000002a15bc                alloc::string::String::into_raw_parts
                0x00000000002a160c                alloc::string::String::try_reserve
                0x00000000002a17f4                alloc::string::String::try_reserve_exact
                0x00000000002a19b4                alloc::string::String::insert_bytes
                0x00000000002a1aa4                alloc::string::FromUtf8Error::as_bytes
                0x00000000002a1ad4                alloc::string::FromUtf8Error::into_utf8_lossy
                0x00000000002a1fac                <alloc::string::FromUtf8Error as core::fmt::Display>::fmt
                0x00000000002a1fec                <alloc::string::FromUtf16Error as core::fmt::Display>::fmt
                0x00000000002a2028                <alloc::string::String as core::clone::Clone>::clone
                0x00000000002a217c                <alloc::string::String as core::clone::Clone>::clone_from
                0x00000000002a28fc                <&alloc::string::String as core::str::pattern::Pattern>::into_searcher
                0x00000000002a2954                <alloc::string::String as core::convert::From<alloc::borrow::Cow<str>>>::from
                0x00000000002a2ebc                <alloc::string::IntoChars as core::fmt::Debug>::fmt
                0x00000000002a2f44                <alloc::string::Drain as core::fmt::Debug>::fmt
                0x00000000002a2fc8                <alloc::string::Drain as core::ops::drop::Drop>::drop
                0x00000000002a30f4                alloc::string::Drain::as_str
                0x00000000002a3130                <alloc::string::Drain as core::convert::AsRef<[u8]>>::as_ref
                0x00000000002a3130                <alloc::string::Drain as core::convert::AsRef<str>>::as_ref
                0x00000000002a316c                <alloc::string::Drain as core::iter::traits::iterator::Iterator>::size_hint
                0x00000000002a31c8                alloc::sync::arcinner_layout_for_value_layout
                0x00000000002a32b4                <alloc::vec::Vec<u8> as core::convert::From<&str>>::from
 *fill*         0x00000000002a3448        0x8 1f2003d5
 .text          0x00000000002a3450       0x18 /usr/lib/aarch64-linux-gnu/libc_nonshared.a(pthread_atfork.oS)
                0x00000000002a3450                __pthread_atfork
                0x00000000002a3450                pthread_atfork
 *(.gnu.warning)

.fini           0x00000000002a3468       0x14
 *(SORT_NONE(.fini))
 .fini          0x00000000002a3468        0xc /lib/aarch64-linux-gnu/crti.o
                0x00000000002a3468                _fini
 .fini          0x00000000002a3474        0x8 /lib/aarch64-linux-gnu/crtn.o
                [!provide]                        PROVIDE (__etext = .)
                [!provide]                        PROVIDE (_etext = .)
                [!provide]                        PROVIDE (etext = .)

.rodata         0x00000000002a3480    0x26246
 *(.rodata .rodata.* .gnu.linkonce.r.*)
 .rodata.str1.1
                0x00000000002a3480       0x19 /tmp/tmp.jxHTwhT1N1.o
 *fill*         0x00000000002a3499        0x7 
 .rodata.cst8   0x00000000002a34a0      0xe20 /tmp/tmp.ZRiHNRtepR.o
                                         0x48 (size before relaxing)
 .rodata        0x00000000002a42c0     0x1b48 /tmp/tmp.ZRiHNRtepR.o
                0x00000000002a4980                serde_json::de::POW10
                0x00000000002a566a                serde_json::ser::Formatter::write_char_escape::HEX_DIGITS
                0x00000000002a5685                serde_json::ser::ESCAPE
                0x00000000002a5900                serde_json::value::index::<impl core::ops::index::Index<I> for serde_json::value::Value>::index::NULL
 *fill*         0x00000000002a5e08        0x8 
 .rodata.cst16  0x00000000002a5e10     0x1100 /tmp/tmp.ZRiHNRtepR.o
                                         0x20 (size before relaxing)
 .rodata.cst4   0x00000000002a6f10      0x120 /tmp/tmp.ZRiHNRtepR.o
                                         0x10 (size before relaxing)
 .rodata.cst32  0x00000000002a7030       0x60 /tmp/tmp.ZRiHNRtepR.o
                                         0x20 (size before relaxing)
 .rodata.cst16  0x00000000002a7090      0x9d0 /tmp/tmp.j1zMqkiwIM.o
 .rodata.cst8   0x00000000002a7090      0x560 /tmp/tmp.j1zMqkiwIM.o
 .rodata        0x00000000002a7090     0x4424 /tmp/tmp.j1zMqkiwIM.o
                0x00000000002a93d8                statrs::distribution::ziggurat_tables::ZIG_NORM_X
                0x00000000002a9be0                statrs::distribution::ziggurat_tables::ZIG_NORM_F
                0x00000000002aa3e8                statrs::distribution::ziggurat_tables::ZIG_EXP_X
                0x00000000002aabf0                statrs::distribution::ziggurat_tables::ZIG_EXP_F
 .rodata.cst32  0x00000000002ab4b4       0x40 /tmp/tmp.j1zMqkiwIM.o
 .rodata.cst4   0x00000000002ab4b4       0x1c /tmp/tmp.j1zMqkiwIM.o
 .rodata.cst8   0x00000000002ab4b4       0x10 /tmp/tmp.1AvJ5bNGPW.o
 *fill*         0x00000000002ab4b4        0x4 
 .rodata        0x00000000002ab4b8      0x570 /tmp/tmp.1AvJ5bNGPW.o
 .rodata.cst16  0x00000000002aba28       0x70 /tmp/tmp.1AvJ5bNGPW.o
                                         0x30 (size before relaxing)
 .rodata.cst4   0x00000000002aba98        0x4 /tmp/tmp.1AvJ5bNGPW.o
 .rodata        0x00000000002aba98      0x348 /tmp/tmp.T4JcO1buAE.o
 .rodata.cst8   0x00000000002abde0       0x58 /tmp/tmp.T4JcO1buAE.o
                                          0x8 (size before relaxing)
 .rodata        0x00000000002abe38      0x152 /tmp/tmp.tnd3D19n8w.o
 .rodata        0x00000000002abf8a        0x4 /tmp/tmp.qgbdJ0RIaK.o
 *fill*         0x00000000002abf8e        0x2 
 .rodata        0x00000000002abf90      0x4d5 /tmp/tmp.02UVREPIR3.o
                0x00000000002ac058                serde::de::impls::<impl serde::de::Deserialize for core::time::Duration>::deserialize::check_overflow::NANOS_PER_SEC
                0x00000000002ac094                serde::de::impls::<impl serde::de::Deserialize for std::time::SystemTime>::deserialize::check_overflow::NANOS_PER_SEC
 .rodata.cst16  0x00000000002ac465       0x50 /tmp/tmp.02UVREPIR3.o
 .rodata.cst4   0x00000000002ac465       0x18 /tmp/tmp.02UVREPIR3.o
 .rodata.cst8   0x00000000002ac465       0x18 /tmp/tmp.02UVREPIR3.o
 .rodata.cst16  0x00000000002ac465       0x80 /tmp/tmp.jif7ZMerv3.o
 .rodata.cst16  0x00000000002ac465       0x10 /tmp/tmp.wEo1ns4GKV.o
 *fill*         0x00000000002ac465        0x3 
 .rodata        0x00000000002ac468       0x8c /tmp/tmp.wEo1ns4GKV.o
 *fill*         0x00000000002ac4f4        0x4 
 .rodata.cst32  0x00000000002ac4f8      0x140 /tmp/tmp.wEo1ns4GKV.o
                                         0x20 (size before relaxing)
 .rodata.cst16  0x00000000002ac638       0x40 /tmp/tmp.yY4AXHMtRa.o
 .rodata.cst8   0x00000000002ac638       0xe8 /tmp/tmp.yY4AXHMtRa.o
 .rodata        0x00000000002ac638      0xc54 /tmp/tmp.yY4AXHMtRa.o
 .rodata.cst4   0x00000000002ad28c       0x44 /tmp/tmp.yY4AXHMtRa.o
 .rodata.cst32  0x00000000002ad28c       0x20 /tmp/tmp.yY4AXHMtRa.o
 .rodata        0x00000000002ad28c        0x1 /tmp/tmp.l76HFRc2z8.o
 *fill*         0x00000000002ad28d        0x3 
 .rodata        0x00000000002ad290      0x5e0 /tmp/tmp.368W3XSNDN.o
 .rodata.cst16  0x00000000002ad870       0x50 /tmp/tmp.368W3XSNDN.o
 .rodata.cst8   0x00000000002ad870       0x10 /tmp/tmp.368W3XSNDN.o
 .rodata.cst4   0x00000000002ad870       0x3c /tmp/tmp.368W3XSNDN.o
 .rodata.cst8   0x00000000002ad870      0xe58 /tmp/tmp.7cB97wCUxJ.o
 .rodata.cst16  0x00000000002ad870      0x6e0 /tmp/tmp.7cB97wCUxJ.o
 .rodata.cst32  0x00000000002ad870       0xa0 /tmp/tmp.7cB97wCUxJ.o
 .rodata        0x00000000002ad870     0x2618 /tmp/tmp.7cB97wCUxJ.o
 .rodata.cst8   0x00000000002afe88      0x168 /tmp/tmp.fly7mVkzgC.o
 .rodata.cst16  0x00000000002afe88      0x160 /tmp/tmp.fly7mVkzgC.o
 .rodata        0x00000000002afe88     0x427c /tmp/tmp.fly7mVkzgC.o
 .rodata.cst4   0x00000000002b4104       0x7c /tmp/tmp.fly7mVkzgC.o
 .rodata.cst8   0x00000000002b4180        0x8 /tmp/tmp.8JBNuUmbgF.o
 .rodata.cst16  0x00000000002b4180       0x10 /tmp/tmp.8JBNuUmbgF.o
 .rodata        0x00000000002b4180      0x1c4 /tmp/tmp.8JBNuUmbgF.o
 .rodata        0x00000000002b4344      0x13c /tmp/tmp.DWP6luA7mj.o
 .rodata.cst8   0x00000000002b4480        0x8 /tmp/tmp.DWP6luA7mj.o
 .rodata.cst16  0x00000000002b4480       0xa0 /tmp/tmp.kEP4qVmKgW.o
 .rodata.cst8   0x00000000002b4480       0x40 /tmp/tmp.kEP4qVmKgW.o
 .rodata        0x00000000002b4480      0xdc5 /tmp/tmp.kEP4qVmKgW.o
 .rodata        0x00000000002b5245       0x66 /tmp/tmp.3xIdfUSbiF.o
 .rodata.cst8   0x00000000002b52ab        0x8 /tmp/tmp.3xIdfUSbiF.o
 .rodata.cst16  0x00000000002b52ab       0x70 /tmp/tmp.ydWpPdcAJ4.o
 .rodata.cst8   0x00000000002b52ab       0x10 /tmp/tmp.ydWpPdcAJ4.o
 *fill*         0x00000000002b52ab        0x5 
 .rodata        0x00000000002b52b0      0x36e /tmp/tmp.ydWpPdcAJ4.o
 .rodata.cst4   0x00000000002b561e        0x4 /tmp/tmp.ydWpPdcAJ4.o
 .rodata.cst16  0x00000000002b561e      0x110 /tmp/tmp.hE4DplIHT5.o
 .rodata.cst8   0x00000000002b561e       0xb0 /tmp/tmp.hE4DplIHT5.o
 *fill*         0x00000000002b561e        0x2 
 .rodata        0x00000000002b5620     0xd940 /tmp/tmp.hE4DplIHT5.o
                0x00000000002b6210                core::num::flt2dec::strategy::grisu::CACHED_POW10
                0x00000000002bc3ef                core::unicode::unicode_data::lowercase::BITSET_CHUNKS_MAP
                0x00000000002bc46a                core::unicode::unicode_data::lowercase::BITSET_INDEX_CHUNKS
                0x00000000002bc5b0                core::unicode::unicode_data::lowercase::BITSET_CANONICAL
                0x00000000002bc770                core::unicode::unicode_data::lowercase::BITSET_MAPPING
                0x00000000002bc965                core::unicode::unicode_data::uppercase::BITSET_CHUNKS_MAP
                0x00000000002bc9e2                core::unicode::unicode_data::uppercase::BITSET_INDEX_CHUNKS
                0x00000000002bcaf8                core::unicode::unicode_data::uppercase::BITSET_CANONICAL
                0x00000000002bcc58                core::unicode::unicode_data::uppercase::BITSET_MAPPING
                0x00000000002bcc8a                core::unicode::unicode_data::white_space::WHITESPACE_MAP
 .rodata.cst4   0x00000000002c2f60       0x18 /tmp/tmp.hE4DplIHT5.o
 .rodata.cst32  0x00000000002c2f60       0x40 /tmp/tmp.hE4DplIHT5.o
 .rodata        0x00000000002c2f60      0x26d /tmp/tmp.bRvc12isai.o
 .rodata.cst4   0x00000000002c31cd       0x50 /tmp/tmp.bRvc12isai.o
 .rodata.cst8   0x00000000002c31cd       0x28 /tmp/tmp.bRvc12isai.o
 .rodata        0x00000000002c31cd       0xf6 /tmp/tmp.pLiPOMntxt.o
 .rodata.cst16  0x00000000002c32c3       0x10 /tmp/tmp.pLiPOMntxt.o
 .rodata        0x00000000002c32c3        0x4 /tmp/tmp.HDPuaqhhZu.o
 .rodata.cst16  0x00000000002c32c7       0x10 /tmp/tmp.jmwwJDUOZj.o
 .rodata        0x00000000002c32c7      0x2b1 /tmp/tmp.ORH0yeivYX.o
 .rodata.cst8   0x00000000002c3578        0x8 /tmp/tmp.ORH0yeivYX.o
 .rodata.cst4   0x00000000002c3578       0x10 /tmp/tmp.ORH0yeivYX.o
 .rodata        0x00000000002c3578     0x298c /tmp/tmp.18nOMT9MRe.o
                0x00000000002c3e48                rand_distr::ziggurat_tables::ZIG_NORM_X
                0x00000000002c4650                rand_distr::ziggurat_tables::ZIG_NORM_F
                0x00000000002c4e58                rand_distr::ziggurat_tables::ZIG_EXP_X
                0x00000000002c5660                rand_distr::ziggurat_tables::ZIG_EXP_F
 .rodata.cst4   0x00000000002c5f04        0x4 /tmp/tmp.cDPw3yBmbF.o
 .rodata        0x00000000002c5f04       0x82 /tmp/tmp.cDPw3yBmbF.o
 .rodata        0x00000000002c5f86       0x78 /tmp/tmp.ROpYMn2IxR.o
 .rodata.cst16  0x00000000002c5ffe       0x10 /tmp/tmp.mK74ILubrR.o
 *fill*         0x00000000002c5ffe        0x2 
 .rodata        0x00000000002c6000      0x360 /tmp/tmp.mK74ILubrR.o
 .rodata.cst8   0x00000000002c6360        0x8 /tmp/tmp.mK74ILubrR.o
 .rodata.cst32  0x00000000002c6360       0x20 /tmp/tmp.mK74ILubrR.o
 .rodata.cst8   0x00000000002c6360       0x28 /tmp/tmp.11GKO8fURX.o
 .rodata        0x00000000002c6360       0x7e /tmp/tmp.11GKO8fURX.o
 .rodata.cst16  0x00000000002c63de       0x10 /tmp/tmp.11GKO8fURX.o
 *fill*         0x00000000002c63de        0x2 
 .rodata        0x00000000002c63e0     0x2a8b /tmp/tmp.S8xLcpI71A.o
 .rodata.cst8   0x00000000002c8e6b       0x60 /tmp/tmp.XCromRbr5b.o
 .rodata        0x00000000002c8e6b       0xdd /tmp/tmp.XCromRbr5b.o
 .rodata        0x00000000002c8f48      0x77e /tmp/tmp.xPd6T95Idf.o
 .rodata.cst4   0x00000000002c96c6        0x8 /tmp/tmp.xPd6T95Idf.o

.rodata1
 *(.rodata1)

.eh_frame_hdr   0x00000000002c96c8     0x762c
 *(.eh_frame_hdr)
 .eh_frame_hdr  0x00000000002c96c8     0x762c /usr/lib/gcc/aarch64-linux-gnu/13/crtbeginS.o
                0x00000000002c96c8                __GNU_EH_FRAME_HDR
 *(.eh_frame_entry .eh_frame_entry.*)

.eh_frame       0x00000000002d0cf8    0x2ba0c
 *(.eh_frame)
 .eh_frame      0x00000000002d0cf8       0x78 /usr/lib/gcc/aarch64-linux-gnu/13/crtbeginS.o
 .eh_frame      0x00000000002d0d70       0x30 /tmp/tmp.jxHTwhT1N1.o
 .eh_frame      0x00000000002d0da0     0x26e0 /tmp/tmp.ZRiHNRtepR.o
                                       0x26f8 (size before relaxing)
 .eh_frame      0x00000000002d3480     0x4210 /tmp/tmp.j1zMqkiwIM.o
                                       0x4240 (size before relaxing)
 .eh_frame      0x00000000002d7690      0x6e8 /tmp/tmp.1AvJ5bNGPW.o
                                        0x720 (size before relaxing)
 .eh_frame      0x00000000002d7d78      0x1f8 /tmp/tmp.T4JcO1buAE.o
                                        0x210 (size before relaxing)
 .eh_frame      0x00000000002d7f70      0x198 /tmp/tmp.tnd3D19n8w.o
                                        0x1b0 (size before relaxing)
 .eh_frame      0x00000000002d8108     0x1568 /tmp/tmp.qgbdJ0RIaK.o
                                       0x1580 (size before relaxing)
 .eh_frame      0x00000000002d9670      0xd78 /tmp/tmp.02UVREPIR3.o
                                        0xd88 (size before relaxing)
 .eh_frame      0x00000000002da3e8     0x2ec8 /tmp/tmp.jif7ZMerv3.o
                                       0x2ed8 (size before relaxing)
 .eh_frame      0x00000000002dd2b0       0x98 /tmp/tmp.wEo1ns4GKV.o
                                         0xb0 (size before relaxing)
 .eh_frame      0x00000000002dd348     0x2f78 /tmp/tmp.yY4AXHMtRa.o
                                       0x2fa8 (size before relaxing)
 .eh_frame      0x00000000002e02c0       0xf0 /tmp/tmp.l76HFRc2z8.o
                                        0x128 (size before relaxing)
 .eh_frame      0x00000000002e03b0      0xce0 /tmp/tmp.368W3XSNDN.o
                                        0xcf0 (size before relaxing)
 .eh_frame      0x00000000002e1090     0x1830 /tmp/tmp.7cB97wCUxJ.o
                                       0x1848 (size before relaxing)
 .eh_frame      0x00000000002e28c0     0xc240 /tmp/tmp.fly7mVkzgC.o
                                       0xc278 (size before relaxing)
 .eh_frame      0x00000000002eeb00      0x208 /tmp/tmp.8JBNuUmbgF.o
                                        0x240 (size before relaxing)
 .eh_frame      0x00000000002eed08      0x108 /tmp/tmp.DWP6luA7mj.o
                                        0x140 (size before relaxing)
 .eh_frame      0x00000000002eee10     0x2128 /tmp/tmp.kEP4qVmKgW.o
                                       0x2160 (size before relaxing)
 .eh_frame      0x00000000002f0f38      0x210 /tmp/tmp.3xIdfUSbiF.o
                                        0x228 (size before relaxing)
 .eh_frame      0x00000000002f1148     0x1000 /tmp/tmp.ydWpPdcAJ4.o
                                       0x1030 (size before relaxing)
 .eh_frame      0x00000000002f2148     0x5548 /tmp/tmp.hE4DplIHT5.o
                                       0x5580 (size before relaxing)
 .eh_frame      0x00000000002f7690       0x30 /tmp/tmp.bRvc12isai.o
                                         0x40 (size before relaxing)
 .eh_frame      0x00000000002f76c0      0x368 /tmp/tmp.pLiPOMntxt.o
                                        0x3a0 (size before relaxing)
 .eh_frame      0x00000000002f7a28     0x1040 /tmp/tmp.HDPuaqhhZu.o
                                       0x1058 (size before relaxing)
 .eh_frame      0x00000000002f8a68      0x638 /tmp/tmp.jmwwJDUOZj.o
                                        0x650 (size before relaxing)
 .eh_frame      0x00000000002f90a0      0x560 /tmp/tmp.ORH0yeivYX.o
                                        0x570 (size before relaxing)
 .eh_frame      0x00000000002f9600      0x3f0 /tmp/tmp.18nOMT9MRe.o
                                        0x400 (size before relaxing)
 .eh_frame      0x00000000002f99f0      0x108 /tmp/tmp.cDPw3yBmbF.o
                                        0x118 (size before relaxing)
 .eh_frame      0x00000000002f9af8      0x4a0 /tmp/tmp.ROpYMn2IxR.o
                                        0x4b0 (size before relaxing)
 .eh_frame      0x00000000002f9f98      0x380 /tmp/tmp.mK74ILubrR.o
                                        0x3b0 (size before relaxing)
 .eh_frame      0x00000000002fa318       0x80 /tmp/tmp.YRYzENnSY1.o
                                         0x98 (size before relaxing)
 .eh_frame      0x00000000002fa398      0x148 /tmp/tmp.11GKO8fURX.o
                                        0x178 (size before relaxing)
 .eh_frame      0x00000000002fa4e0       0xd0 /tmp/tmp.S8xLcpI71A.o
                                         0xe0 (size before relaxing)
 .eh_frame      0x00000000002fa5b0     0x1080 /tmp/tmp.XCromRbr5b.o
                                       0x1090 (size before relaxing)
 .eh_frame      0x00000000002fb630     0x10b0 /tmp/tmp.xPd6T95Idf.o
                                       0x10e8 (size before relaxing)
 .eh_frame      0x00000000002fc6e0       0x20 /usr/lib/aarch64-linux-gnu/libc_nonshared.a(pthread_atfork.oS)
                                         0x38 (size before relaxing)
 .eh_frame      0x00000000002fc700        0x4 /usr/lib/gcc/aarch64-linux-gnu/13/crtendS.o
 *(.eh_frame.*)

.sframe
 *(.sframe)
 *(.sframe.*)

.gcc_except_table
                0x00000000002fc704     0x9058
 *(.gcc_except_table .gcc_except_table.*)
 .gcc_except_table
                0x00000000002fc704      0x964 /tmp/tmp.ZRiHNRtepR.o
 .gcc_except_table
                0x00000000002fd068      0x2dc /tmp/tmp.j1zMqkiwIM.o
 .gcc_except_table
                0x00000000002fd344       0x70 /tmp/tmp.1AvJ5bNGPW.o
 .gcc_except_table
                0x00000000002fd3b4     0x3edc /tmp/tmp.yY4AXHMtRa.o
 .gcc_except_table
                0x0000000000301290       0x58 /tmp/tmp.l76HFRc2z8.o
 .gcc_except_table
                0x00000000003012e8     0x2684 /tmp/tmp.fly7mVkzgC.o
 .gcc_except_table
                0x000000000030396c       0x98 /tmp/tmp.8JBNuUmbgF.o
 .gcc_except_table
                0x0000000000303a04       0x44 /tmp/tmp.DWP6luA7mj.o
 .gcc_except_table
                0x0000000000303a48     0x14b8 /tmp/tmp.kEP4qVmKgW.o
 .gcc_except_table
                0x0000000000304f00      0x2f4 /tmp/tmp.ydWpPdcAJ4.o
 .gcc_except_table
                0x00000000003051f4       0x18 /tmp/tmp.hE4DplIHT5.o
 .gcc_except_table
                0x000000000030520c       0x9c /tmp/tmp.pLiPOMntxt.o
 .gcc_except_table
                0x00000000003052a8       0x4c /tmp/tmp.mK74ILubrR.o
 .gcc_except_table
                0x00000000003052f4       0x18 /tmp/tmp.11GKO8fURX.o
 .gcc_except_table
                0x000000000030530c      0x450 /tmp/tmp.xPd6T95Idf.o

.gnu_extab
 *(.gnu_extab*)

.exception_ranges
 *(.exception_ranges*)
                0x00000000003160b0                . = DATA_SEGMENT_ALIGN (CONSTANT (MAXPAGESIZE), CONSTANT (COMMONPAGESIZE))

.eh_frame
 *(.eh_frame)
 *(.eh_frame.*)

.sframe
 *(.sframe)
 *(.sframe.*)

.gnu_extab
 *(.gnu_extab)

.gcc_except_table
 *(.gcc_except_table .gcc_except_table.*)

.exception_ranges
 *(.exception_ranges*)

.tdata          0x00000000003160b0       0x20
 *(.tdata .tdata.* .gnu.linkonce.td.*)
 .tdata         0x00000000003160b0       0x20 /tmp/tmp.fly7mVkzgC.o

.tbss           0x00000000003160d0      0x250
 *(.tbss .tbss.* .gnu.linkonce.tb.*)
 .tbss          0x00000000003160d0       0x90 /tmp/tmp.yY4AXHMtRa.o
                0x00000000003160d0                proc_macro::bridge::client::state::BRIDGE_STATE::{{constant}}::{{closure}}::VAL
                0x00000000003160d8                proc_macro::bridge::server::ALREADY_RUNNING_SAME_THREAD::{{constant}}::{{closure}}::VAL
                0x00000000003160e0                proc_macro::bridge::symbol::INTERNER::{{constant}}::{{closure}}::VAL
 .tbss          0x0000000000316160       0x80 /tmp/tmp.fly7mVkzgC.o
                0x0000000000316160                std::thread::current::id::ID
                0x0000000000316188                std::sync::mpmc::waker::current_thread_id::DUMMY::{{constant}}::{{closure}}::VAL
                0x0000000000316190                std::sync::mpmc::context::Context::with::CONTEXT::{{constant}}::{{closure}}::VAL
                0x00000000003161b0                std::hash::random::RandomState::new::KEYS::{{constant}}::{{closure}}::VAL
                0x00000000003161c8                std::thread::spawnhook::SPAWN_HOOKS::{{constant}}::{{closure}}::VAL
                0x00000000003161d8                std::thread::current::CURRENT
 .tbss          0x00000000003161e0      0x130 /tmp/tmp.jmwwJDUOZj.o
                0x00000000003161e0                matrixmultiply::gemm::MASK_BUF::{{constant}}::{{closure}}::VAL
 .tbss          0x0000000000316310       0x10 /tmp/tmp.mK74ILubrR.o
 *(.tcommon)

.preinit_array
 *(.preinit_array)

.init_array     0x00000000003160d0       0x10
 *(SORT_BY_INIT_PRIORITY(.init_array.*) SORT_BY_INIT_PRIORITY(.ctors.*))
 .init_array.00099
                0x00000000003160d0        0x8 /tmp/tmp.fly7mVkzgC.o
                0x00000000003160d0                std::sys::pal::unix::args::imp::ARGV_INIT_ARRAY
 *(.init_array EXCLUDE_FILE(*crtend?.o *crtend.o *crtbegin?.o *crtbegin.o) .ctors)
 .init_array    0x00000000003160d8        0x8 /usr/lib/gcc/aarch64-linux-gnu/13/crtbeginS.o

.fini_array     0x00000000003160e0        0x8
 *(SORT_BY_INIT_PRIORITY(.fini_array.*) SORT_BY_INIT_PRIORITY(.dtors.*))
 *(.fini_array EXCLUDE_FILE(*crtend?.o *crtend.o *crtbegin?.o *crtbegin.o) .dtors)
 .fini_array    0x00000000003160e0        0x8 /usr/lib/gcc/aarch64-linux-gnu/13/crtbeginS.o

.ctors
 *crtbegin.o(.ctors)
 *crtbegin?.o(.ctors)
 *(EXCLUDE_FILE(*crtend?.o *crtend.o) .ctors)
 *(SORT_BY_NAME(.ctors.*))
 *(.ctors)

.dtors
 *crtbegin.o(.dtors)
 *crtbegin?.o(.dtors)
 *(EXCLUDE_FILE(*crtend?.o *crtend.o) .dtors)
 *(SORT_BY_NAME(.dtors.*))
 *(.dtors)

.jcr
 *(.jcr)

.data.rel.ro    0x00000000003160e8     0x9a30
 *(.data.rel.ro.local* .gnu.linkonce.d.rel.ro.local.*)
 *(.data.rel.ro .data.rel.ro.* .gnu.linkonce.d.rel.ro.*)
 .data.rel.ro   0x00000000003160e8        0x0 /lib/aarch64-linux-gnu/crti.o
 .data.rel.ro   0x00000000003160e8      0x858 /tmp/tmp.ZRiHNRtepR.o
 .data.rel.ro   0x0000000000316940      0xe40 /tmp/tmp.j1zMqkiwIM.o
 .data.rel.ro   0x0000000000317780      0x3c8 /tmp/tmp.1AvJ5bNGPW.o
 .data.rel.ro   0x0000000000317b48      0x170 /tmp/tmp.T4JcO1buAE.o
 .data.rel.ro   0x0000000000317cb8       0x40 /tmp/tmp.tnd3D19n8w.o
 .data.rel.ro   0x0000000000317cf8      0x2e8 /tmp/tmp.02UVREPIR3.o
                0x0000000000317f90                serde::de::impls::<impl serde::de::Deserialize for core::net::ip_addr::IpAddr>::deserialize::VARIANTS
                0x0000000000317fa0                serde::de::impls::<impl serde::de::Deserialize for core::net::socket_addr::SocketAddr>::deserialize::VARIANTS
                0x0000000000317fd0                serde::de::impls::OSSTR_VARIANTS
 .data.rel.ro   0x0000000000317fe0       0x20 /tmp/tmp.wEo1ns4GKV.o
 .data.rel.ro   0x0000000000318000      0x890 /tmp/tmp.yY4AXHMtRa.o
 .data.rel.ro   0x0000000000318890      0x650 /tmp/tmp.368W3XSNDN.o
 .data.rel.ro   0x0000000000318ee0     0x3120 /tmp/tmp.fly7mVkzgC.o
                0x000000000031aae8                std::panicking::EMPTY_PANIC
 .data.rel.ro   0x000000000031c000       0xb0 /tmp/tmp.8JBNuUmbgF.o
 .data.rel.ro   0x000000000031c0b0       0xc0 /tmp/tmp.DWP6luA7mj.o
 .data.rel.ro   0x000000000031c170     0x1270 /tmp/tmp.kEP4qVmKgW.o
 .data.rel.ro   0x000000000031d3e0       0x18 /tmp/tmp.3xIdfUSbiF.o
 .data.rel.ro   0x000000000031d3f8      0x550 /tmp/tmp.ydWpPdcAJ4.o
 .data.rel.ro   0x000000000031d948     0x14c8 /tmp/tmp.hE4DplIHT5.o
 .data.rel.ro   0x000000000031ee10       0x18 /tmp/tmp.bRvc12isai.o
 .data.rel.ro   0x000000000031ee28      0x178 /tmp/tmp.pLiPOMntxt.o
 .data.rel.ro   0x000000000031efa0       0x20 /tmp/tmp.HDPuaqhhZu.o
 .data.rel.ro   0x000000000031efc0      0x3c0 /tmp/tmp.ORH0yeivYX.o
 .data.rel.ro   0x000000000031f380       0x18 /tmp/tmp.18nOMT9MRe.o
 .data.rel.ro   0x000000000031f398       0x48 /tmp/tmp.cDPw3yBmbF.o
 .data.rel.ro   0x000000000031f3e0       0x90 /tmp/tmp.ROpYMn2IxR.o
 .data.rel.ro   0x000000000031f470       0xf0 /tmp/tmp.mK74ILubrR.o
 .data.rel.ro   0x000000000031f560       0xd8 /tmp/tmp.11GKO8fURX.o
 .data.rel.ro   0x000000000031f638       0xb0 /tmp/tmp.XCromRbr5b.o
 .data.rel.ro   0x000000000031f6e8      0x430 /tmp/tmp.xPd6T95Idf.o

.dynamic        0x000000000031fb18      0x200
 *(.dynamic)
 .dynamic       0x000000000031fb18      0x200 /lib/aarch64-linux-gnu/crti.o
                0x000000000031fb18                _DYNAMIC

.got            0x000000000031fd18      0x2d0
 *(.got)
 .got           0x000000000031fd18      0x2d0 /lib/aarch64-linux-gnu/crti.o
                0x000000000031fd18                _GLOBAL_OFFSET_TABLE_
 *(.igot)
                0x000000000031ffe8                . = DATA_SEGMENT_RELRO_END (., 0x18)

.got.plt        0x000000000031ffe8     0x17b8
 *(.got.plt)
 .got.plt       0x000000000031ffe8     0x17b8 /lib/aarch64-linux-gnu/crti.o
 *(.igot.plt)

.data           0x00000000003217a0       0xa0
                [!provide]                        PROVIDE (__data_start = .)
 *(.data .data.* .gnu.linkonce.d.*)
 .data.rel.local
                0x00000000003217a0        0x8 /usr/lib/gcc/aarch64-linux-gnu/13/crtbeginS.o
                0x00000000003217a0                __dso_handle
 .data          0x00000000003217a8       0x10 /tmp/tmp.jxHTwhT1N1.o
                0x00000000003217a8                __runtime_signature
                0x00000000003217b0                __fuel_remaining
 .data.DW.ref.rust_eh_personality
                0x00000000003217b8        0x8 /tmp/tmp.ZRiHNRtepR.o
                0x00000000003217b8                DW.ref.rust_eh_personality
 .data          0x00000000003217c0       0x10 /tmp/tmp.T4JcO1buAE.o
 .data          0x00000000003217d0       0x10 /tmp/tmp.yY4AXHMtRa.o
                0x00000000003217d0                proc_macro::bridge::client::COUNTERS
 .data          0x00000000003217e0       0x38 /tmp/tmp.fly7mVkzgC.o
 *fill*         0x0000000000321818        0x8 
 .data          0x0000000000321820       0x20 /tmp/tmp.xPd6T95Idf.o
                0x0000000000321820                alloc::sync::STATIC_INNER_SLICE

.tm_clone_table
                0x0000000000321840        0x0
 .tm_clone_table
                0x0000000000321840        0x0 /usr/lib/gcc/aarch64-linux-gnu/13/crtbeginS.o
 .tm_clone_table
                0x0000000000321840        0x0 /usr/lib/gcc/aarch64-linux-gnu/13/crtendS.o

.data1
 *(.data1)
                [!provide]                        PROVIDE (_edata = .)
                [!provide]                        PROVIDE (edata = .)
                0x0000000000321840                . = ALIGN (ALIGNOF (NEXT_SECTION))
                [!provide]                        PROVIDE (__bss_start = .)
                [!provide]                        PROVIDE (__bss_start__ = .)

.bss            0x0000000000321840      0x1e0
 *(.dynbss)
 .dynbss        0x0000000000321840        0x0 /lib/aarch64-linux-gnu/crti.o
 *(.bss .bss.* .gnu.linkonce.b.*)
 .bss           0x0000000000321840        0x1 /usr/lib/gcc/aarch64-linux-gnu/13/crtbeginS.o
 *fill*         0x0000000000321841        0x7 
 .bss           0x0000000000321848       0x18 /tmp/tmp.jxHTwhT1N1.o
                0x0000000000321848                __curr_memory_usage
                0x0000000000321850                __total_memory_usage
                0x0000000000321858                __max_memory_usage
 .bss           0x0000000000321860       0x30 /tmp/tmp.T4JcO1buAE.o
 .bss           0x0000000000321890        0x4 /tmp/tmp.yY4AXHMtRa.o
 *fill*         0x0000000000321894        0x4 
 .bss           0x0000000000321898      0x15c /tmp/tmp.fly7mVkzgC.o
                0x00000000003218a0                std::thread::Builder::spawn_unchecked_::{{closure}}::MIN
                0x0000000000321928                std::io::stdio::stderr::INSTANCE
                0x0000000000321940                std::panic::SHOULD_CAPTURE
                0x0000000000321958                std::panicking::HOOK
                0x0000000000321978                std::panicking::panic_count::GLOBAL_PANIC_COUNT
 *fill*         0x00000000003219f4        0x4 
 .bss           0x00000000003219f8       0x18 /tmp/tmp.bRvc12isai.o
                0x00000000003219f8                std_detect::detect::cache::CACHE
 .bss           0x0000000000321a10        0xc /tmp/tmp.mK74ILubrR.o
 *(COMMON)
                0x0000000000321a20                . = ALIGN ((. != 0x0)?0x8:0x1)
 *fill*         0x0000000000321a1c        0x4 
                [!provide]                        PROVIDE (_bss_end__ = .)
                [!provide]                        PROVIDE (__bss_end__ = .)
                0x0000000000321a20                . = ALIGN (0x8)
                0x0000000000321a20                . = SEGMENT_START ("ldata-segment", .)
                0x0000000000321a20                . = ALIGN (0x8)
                [!provide]                        PROVIDE (__end__ = .)
                [!provide]                        PROVIDE (_end = .)
                [!provide]                        PROVIDE (end = .)
                0x0000000000321a20                . = DATA_SEGMENT_END (.)

.stab
 *(.stab)

.stabstr
 *(.stabstr)

.stab.excl
 *(.stab.excl)

.stab.exclstr
 *(.stab.exclstr)

.stab.index
 *(.stab.index)

.stab.indexstr
 *(.stab.indexstr)

.comment        0x0000000000000000       0x5f
 *(.comment)
 .comment       0x0000000000000000       0x5f /usr/lib/gcc/aarch64-linux-gnu/13/crtbeginS.o
                                         0x2c (size before relaxing)
 .comment       0x000000000000005f       0x35 /tmp/tmp.jxHTwhT1N1.o
 .comment       0x000000000000005f       0x35 /tmp/tmp.ZRiHNRtepR.o
 .comment       0x000000000000005f       0x35 /tmp/tmp.j1zMqkiwIM.o
 .comment       0x000000000000005f       0x35 /tmp/tmp.1AvJ5bNGPW.o
 .comment       0x000000000000005f       0x35 /tmp/tmp.T4JcO1buAE.o
 .comment       0x000000000000005f       0x35 /tmp/tmp.tnd3D19n8w.o
 .comment       0x000000000000005f       0x35 /tmp/tmp.qgbdJ0RIaK.o
 .comment       0x000000000000005f       0x35 /tmp/tmp.02UVREPIR3.o
 .comment       0x000000000000005f       0x35 /tmp/tmp.jif7ZMerv3.o
 .comment       0x000000000000005f       0x35 /tmp/tmp.wEo1ns4GKV.o
 .comment       0x000000000000005f       0x35 /tmp/tmp.yY4AXHMtRa.o
 .comment       0x000000000000005f       0x35 /tmp/tmp.l76HFRc2z8.o
 .comment       0x000000000000005f       0x35 /tmp/tmp.368W3XSNDN.o
 .comment       0x000000000000005f       0x35 /tmp/tmp.7cB97wCUxJ.o
 .comment       0x000000000000005f       0x35 /tmp/tmp.fly7mVkzgC.o
 .comment       0x000000000000005f       0x35 /tmp/tmp.8JBNuUmbgF.o
 .comment       0x000000000000005f       0x35 /tmp/tmp.DWP6luA7mj.o
 .comment       0x000000000000005f       0x35 /tmp/tmp.kEP4qVmKgW.o
 .comment       0x000000000000005f       0x35 /tmp/tmp.3xIdfUSbiF.o
 .comment       0x000000000000005f       0x35 /tmp/tmp.ydWpPdcAJ4.o
 .comment       0x000000000000005f       0x35 /tmp/tmp.hE4DplIHT5.o
 .comment       0x000000000000005f       0x35 /tmp/tmp.bRvc12isai.o
 .comment       0x000000000000005f       0x35 /tmp/tmp.pLiPOMntxt.o
 .comment       0x000000000000005f       0x35 /tmp/tmp.HDPuaqhhZu.o
 .comment       0x000000000000005f       0x35 /tmp/tmp.jmwwJDUOZj.o
 .comment       0x000000000000005f       0x35 /tmp/tmp.ORH0yeivYX.o
 .comment       0x000000000000005f       0x35 /tmp/tmp.18nOMT9MRe.o
 .comment       0x000000000000005f       0x35 /tmp/tmp.cDPw3yBmbF.o
 .comment       0x000000000000005f       0x35 /tmp/tmp.ROpYMn2IxR.o
 .comment       0x000000000000005f       0x35 /tmp/tmp.mK74ILubrR.o
 .comment       0x000000000000005f       0x35 /tmp/tmp.YRYzENnSY1.o
 .comment       0x000000000000005f       0x35 /tmp/tmp.11GKO8fURX.o
 .comment       0x000000000000005f       0x35 /tmp/tmp.S8xLcpI71A.o
 .comment       0x000000000000005f       0x35 /tmp/tmp.XCromRbr5b.o
 .comment       0x000000000000005f       0x35 /tmp/tmp.xPd6T95Idf.o
 .comment       0x000000000000005f       0x2c /usr/lib/gcc/aarch64-linux-gnu/13/crtendS.o

.gnu.build.attributes
 *(.gnu.build.attributes .gnu.build.attributes.*)

.debug
 *(.debug)

.line
 *(.line)

.debug_srcinfo
 *(.debug_srcinfo)

.debug_sfnames
 *(.debug_sfnames)

.debug_aranges
 *(.debug_aranges)

.debug_pubnames
 *(.debug_pubnames)

.debug_info     0x0000000000000000   0x4f4120
 *(.debug_info .gnu.linkonce.wi.*)
 .debug_info    0x0000000000000000    0x4940f /tmp/tmp.ZRiHNRtepR.o
 .debug_info    0x000000000004940f    0x53f94 /tmp/tmp.j1zMqkiwIM.o
 .debug_info    0x000000000009d3a3     0xc057 /tmp/tmp.1AvJ5bNGPW.o
 .debug_info    0x00000000000a93fa     0x3d4c /tmp/tmp.T4JcO1buAE.o
 .debug_info    0x00000000000ad146     0x5490 /tmp/tmp.tnd3D19n8w.o
 .debug_info    0x00000000000b25d6    0x1a906 /tmp/tmp.qgbdJ0RIaK.o
 .debug_info    0x00000000000ccedc     0x5cdd /tmp/tmp.02UVREPIR3.o
 .debug_info    0x00000000000d2bb9    0x324a2 /tmp/tmp.jif7ZMerv3.o
 .debug_info    0x000000000010505b      0x9ba /tmp/tmp.wEo1ns4GKV.o
 .debug_info    0x0000000000105a15    0xa670c /tmp/tmp.yY4AXHMtRa.o
 .debug_info    0x00000000001ac121     0x142f /tmp/tmp.l76HFRc2z8.o
 .debug_info    0x00000000001ad550    0x22d9c /tmp/tmp.368W3XSNDN.o
 .debug_info    0x00000000001d02ec    0x12636 /tmp/tmp.7cB97wCUxJ.o
 .debug_info    0x00000000001e2922   0x13b5a4 /tmp/tmp.fly7mVkzgC.o
 .debug_info    0x000000000031dec6     0x5be1 /tmp/tmp.8JBNuUmbgF.o
 .debug_info    0x0000000000323aa7    0x10e47 /tmp/tmp.DWP6luA7mj.o
 .debug_info    0x00000000003348ee    0x9894d /tmp/tmp.kEP4qVmKgW.o
 .debug_info    0x00000000003cd23b    0x18b36 /tmp/tmp.3xIdfUSbiF.o
 .debug_info    0x00000000003e5d71    0x13694 /tmp/tmp.ydWpPdcAJ4.o
 .debug_info    0x00000000003f9405    0x6ce6d /tmp/tmp.hE4DplIHT5.o
 .debug_info    0x0000000000466272      0x714 /tmp/tmp.bRvc12isai.o
 .debug_info    0x0000000000466986     0x4142 /tmp/tmp.pLiPOMntxt.o
 .debug_info    0x000000000046aac8     0xbb7f /tmp/tmp.HDPuaqhhZu.o
 .debug_info    0x0000000000476647    0x1a9a8 /tmp/tmp.jmwwJDUOZj.o
 .debug_info    0x0000000000490fef     0xd583 /tmp/tmp.ORH0yeivYX.o
 .debug_info    0x000000000049e572     0x1fc2 /tmp/tmp.18nOMT9MRe.o
 .debug_info    0x00000000004a0534     0x16ab /tmp/tmp.cDPw3yBmbF.o
 .debug_info    0x00000000004a1bdf     0x5698 /tmp/tmp.ROpYMn2IxR.o
 .debug_info    0x00000000004a7277    0x10261 /tmp/tmp.mK74ILubrR.o
 .debug_info    0x00000000004b74d8      0x4ce /tmp/tmp.YRYzENnSY1.o
 .debug_info    0x00000000004b79a6     0x290e /tmp/tmp.11GKO8fURX.o
 .debug_info    0x00000000004ba2b4     0x2e55 /tmp/tmp.S8xLcpI71A.o
 .debug_info    0x00000000004bd109    0x1531c /tmp/tmp.XCromRbr5b.o
 .debug_info    0x00000000004d2425    0x21cfb /tmp/tmp.xPd6T95Idf.o

.debug_abbrev   0x0000000000000000     0x9377
 *(.debug_abbrev)
 .debug_abbrev  0x0000000000000000      0x68e /tmp/tmp.ZRiHNRtepR.o
 .debug_abbrev  0x000000000000068e      0x5f8 /tmp/tmp.j1zMqkiwIM.o
 .debug_abbrev  0x0000000000000c86      0x4d4 /tmp/tmp.1AvJ5bNGPW.o
 .debug_abbrev  0x000000000000115a      0x3e8 /tmp/tmp.T4JcO1buAE.o
 .debug_abbrev  0x0000000000001542      0x3c7 /tmp/tmp.tnd3D19n8w.o
 .debug_abbrev  0x0000000000001909      0x2af /tmp/tmp.qgbdJ0RIaK.o
 .debug_abbrev  0x0000000000001bb8      0x460 /tmp/tmp.02UVREPIR3.o
 .debug_abbrev  0x0000000000002018      0x4a1 /tmp/tmp.jif7ZMerv3.o
 .debug_abbrev  0x00000000000024b9      0x27a /tmp/tmp.wEo1ns4GKV.o
 .debug_abbrev  0x0000000000002733      0x6d8 /tmp/tmp.yY4AXHMtRa.o
 .debug_abbrev  0x0000000000002e0b      0x2ab /tmp/tmp.l76HFRc2z8.o
 .debug_abbrev  0x00000000000030b6      0x50b /tmp/tmp.368W3XSNDN.o
 .debug_abbrev  0x00000000000035c1      0x482 /tmp/tmp.7cB97wCUxJ.o
 .debug_abbrev  0x0000000000003a43      0x963 /tmp/tmp.fly7mVkzgC.o
 .debug_abbrev  0x00000000000043a6      0x3a2 /tmp/tmp.8JBNuUmbgF.o
 .debug_abbrev  0x0000000000004748      0x426 /tmp/tmp.DWP6luA7mj.o
 .debug_abbrev  0x0000000000004b6e      0x637 /tmp/tmp.kEP4qVmKgW.o
 .debug_abbrev  0x00000000000051a5      0x3a0 /tmp/tmp.3xIdfUSbiF.o
 .debug_abbrev  0x0000000000005545      0x5c3 /tmp/tmp.ydWpPdcAJ4.o
 .debug_abbrev  0x0000000000005b08      0x7cd /tmp/tmp.hE4DplIHT5.o
 .debug_abbrev  0x00000000000062d5      0x236 /tmp/tmp.bRvc12isai.o
 .debug_abbrev  0x000000000000650b      0x3fc /tmp/tmp.pLiPOMntxt.o
 .debug_abbrev  0x0000000000006907      0x314 /tmp/tmp.HDPuaqhhZu.o
 .debug_abbrev  0x0000000000006c1b      0x4d8 /tmp/tmp.jmwwJDUOZj.o
 .debug_abbrev  0x00000000000070f3      0x3ed /tmp/tmp.ORH0yeivYX.o
 .debug_abbrev  0x00000000000074e0      0x316 /tmp/tmp.18nOMT9MRe.o
 .debug_abbrev  0x00000000000077f6      0x331 /tmp/tmp.cDPw3yBmbF.o
 .debug_abbrev  0x0000000000007b27      0x2ae /tmp/tmp.ROpYMn2IxR.o
 .debug_abbrev  0x0000000000007dd5      0x4ae /tmp/tmp.mK74ILubrR.o
 .debug_abbrev  0x0000000000008283       0xec /tmp/tmp.YRYzENnSY1.o
 .debug_abbrev  0x000000000000836f      0x32d /tmp/tmp.11GKO8fURX.o
 .debug_abbrev  0x000000000000869c      0x2f4 /tmp/tmp.S8xLcpI71A.o
 .debug_abbrev  0x0000000000008990      0x41c /tmp/tmp.XCromRbr5b.o
 .debug_abbrev  0x0000000000008dac      0x5cb /tmp/tmp.xPd6T95Idf.o

.debug_line     0x0000000000000000   0x10cf95
 *(.debug_line .debug_line.* .debug_line_end)
 .debug_line    0x0000000000000000     0xdd6d /tmp/tmp.ZRiHNRtepR.o
 .debug_line    0x000000000000dd6d    0x11274 /tmp/tmp.j1zMqkiwIM.o
 .debug_line    0x000000000001efe1     0x1e0d /tmp/tmp.1AvJ5bNGPW.o
 .debug_line    0x0000000000020dee      0x73c /tmp/tmp.T4JcO1buAE.o
 .debug_line    0x000000000002152a     0x18fa /tmp/tmp.tnd3D19n8w.o
 .debug_line    0x0000000000022e24    0x14af5 /tmp/tmp.qgbdJ0RIaK.o
 .debug_line    0x0000000000037919     0x107c /tmp/tmp.02UVREPIR3.o
 .debug_line    0x0000000000038995     0xbb9e /tmp/tmp.jif7ZMerv3.o
 .debug_line    0x0000000000044533      0x12f /tmp/tmp.wEo1ns4GKV.o
 .debug_line    0x0000000000044662    0x1c3b3 /tmp/tmp.yY4AXHMtRa.o
 .debug_line    0x0000000000060a15      0x2dc /tmp/tmp.l76HFRc2z8.o
 .debug_line    0x0000000000060cf1     0x7d60 /tmp/tmp.368W3XSNDN.o
 .debug_line    0x0000000000068a51     0xbd2d /tmp/tmp.7cB97wCUxJ.o
 .debug_line    0x000000000007477e    0x39de6 /tmp/tmp.fly7mVkzgC.o
 .debug_line    0x00000000000ae564      0x950 /tmp/tmp.8JBNuUmbgF.o
 .debug_line    0x00000000000aeeb4     0x1eff /tmp/tmp.DWP6luA7mj.o
 .debug_line    0x00000000000b0db3    0x17940 /tmp/tmp.kEP4qVmKgW.o
 .debug_line    0x00000000000c86f3     0x43ae /tmp/tmp.3xIdfUSbiF.o
 .debug_line    0x00000000000ccaa1     0x2cdc /tmp/tmp.ydWpPdcAJ4.o
 .debug_line    0x00000000000cf77d    0x1b780 /tmp/tmp.hE4DplIHT5.o
 .debug_line    0x00000000000eaefd      0x2d6 /tmp/tmp.bRvc12isai.o
 .debug_line    0x00000000000eb1d3      0x742 /tmp/tmp.pLiPOMntxt.o
 .debug_line    0x00000000000eb915     0x664d /tmp/tmp.HDPuaqhhZu.o
 .debug_line    0x00000000000f1f62     0x647a /tmp/tmp.jmwwJDUOZj.o
 .debug_line    0x00000000000f83dc     0x29ae /tmp/tmp.ORH0yeivYX.o
 .debug_line    0x00000000000fad8a      0x813 /tmp/tmp.18nOMT9MRe.o
 .debug_line    0x00000000000fb59d      0x2ea /tmp/tmp.cDPw3yBmbF.o
 .debug_line    0x00000000000fb887     0x1dae /tmp/tmp.ROpYMn2IxR.o
 .debug_line    0x00000000000fd635     0x2183 /tmp/tmp.mK74ILubrR.o
 .debug_line    0x00000000000ff7b8       0xe7 /tmp/tmp.YRYzENnSY1.o
 .debug_line    0x00000000000ff89f      0x5ee /tmp/tmp.11GKO8fURX.o
 .debug_line    0x00000000000ffe8d     0x1616 /tmp/tmp.S8xLcpI71A.o
 .debug_line    0x00000000001014a3     0x5e87 /tmp/tmp.XCromRbr5b.o
 .debug_line    0x000000000010732a     0x5c6b /tmp/tmp.xPd6T95Idf.o

.debug_frame
 *(.debug_frame)

.debug_str      0x0000000000000000   0x2e7a1d
 *(.debug_str)
 .debug_str     0x0000000000000000   0x2e7a1d /tmp/tmp.ZRiHNRtepR.o
                                      0x3e8ed (size before relaxing)
 .debug_str     0x00000000002e7a1d    0x592c1 /tmp/tmp.j1zMqkiwIM.o
 .debug_str     0x00000000002e7a1d     0xd23e /tmp/tmp.1AvJ5bNGPW.o
 .debug_str     0x00000000002e7a1d     0x3892 /tmp/tmp.T4JcO1buAE.o
 .debug_str     0x00000000002e7a1d     0x2fc1 /tmp/tmp.tnd3D19n8w.o
 .debug_str     0x00000000002e7a1d     0x89eb /tmp/tmp.qgbdJ0RIaK.o
 .debug_str     0x00000000002e7a1d     0x7ffc /tmp/tmp.02UVREPIR3.o
 .debug_str     0x00000000002e7a1d    0x11849 /tmp/tmp.jif7ZMerv3.o
 .debug_str     0x00000000002e7a1d      0x917 /tmp/tmp.wEo1ns4GKV.o
 .debug_str     0x00000000002e7a1d    0x48f4d /tmp/tmp.yY4AXHMtRa.o
 .debug_str     0x00000000002e7a1d     0x15d5 /tmp/tmp.l76HFRc2z8.o
 .debug_str     0x00000000002e7a1d     0xf671 /tmp/tmp.368W3XSNDN.o
 .debug_str     0x00000000002e7a1d     0x42dc /tmp/tmp.7cB97wCUxJ.o
 .debug_str     0x00000000002e7a1d    0xe5c4f /tmp/tmp.fly7mVkzgC.o
 .debug_str     0x00000000002e7a1d     0x58cd /tmp/tmp.8JBNuUmbgF.o
 .debug_str     0x00000000002e7a1d     0xe419 /tmp/tmp.DWP6luA7mj.o
 .debug_str     0x00000000002e7a1d    0x942fc /tmp/tmp.kEP4qVmKgW.o
 .debug_str     0x00000000002e7a1d     0x50f3 /tmp/tmp.3xIdfUSbiF.o
 .debug_str     0x00000000002e7a1d    0x12b9b /tmp/tmp.ydWpPdcAJ4.o
 .debug_str     0x00000000002e7a1d    0x492f8 /tmp/tmp.hE4DplIHT5.o
 .debug_str     0x00000000002e7a1d      0x74e /tmp/tmp.bRvc12isai.o
 .debug_str     0x00000000002e7a1d     0x4038 /tmp/tmp.pLiPOMntxt.o
 .debug_str     0x00000000002e7a1d     0xa1c7 /tmp/tmp.HDPuaqhhZu.o
 .debug_str     0x00000000002e7a1d     0x8ea8 /tmp/tmp.jmwwJDUOZj.o
 .debug_str     0x00000000002e7a1d     0x64dc /tmp/tmp.ORH0yeivYX.o
 .debug_str     0x00000000002e7a1d     0x1b65 /tmp/tmp.18nOMT9MRe.o
 .debug_str     0x00000000002e7a1d     0x1647 /tmp/tmp.cDPw3yBmbF.o
 .debug_str     0x00000000002e7a1d     0x32e1 /tmp/tmp.ROpYMn2IxR.o
 .debug_str     0x00000000002e7a1d     0xe486 /tmp/tmp.mK74ILubrR.o
 .debug_str     0x00000000002e7a1d      0x552 /tmp/tmp.YRYzENnSY1.o
 .debug_str     0x00000000002e7a1d     0x23dc /tmp/tmp.11GKO8fURX.o
 .debug_str     0x00000000002e7a1d     0x1326 /tmp/tmp.S8xLcpI71A.o
 .debug_str     0x00000000002e7a1d     0xc588 /tmp/tmp.XCromRbr5b.o
 .debug_str     0x00000000002e7a1d    0x19324 /tmp/tmp.xPd6T95Idf.o

.debug_loc      0x0000000000000000   0x5d019d
 *(.debug_loc)
 .debug_loc     0x0000000000000000    0x4da7f /tmp/tmp.ZRiHNRtepR.o
 .debug_loc     0x000000000004da7f    0x4d606 /tmp/tmp.j1zMqkiwIM.o
 .debug_loc     0x000000000009b085     0xb83b /tmp/tmp.1AvJ5bNGPW.o
 .debug_loc     0x00000000000a68c0     0x1295 /tmp/tmp.T4JcO1buAE.o
 .debug_loc     0x00000000000a7b55     0x720d /tmp/tmp.tnd3D19n8w.o
 .debug_loc     0x00000000000aed62    0x3c733 /tmp/tmp.qgbdJ0RIaK.o
 .debug_loc     0x00000000000eb495     0x431a /tmp/tmp.02UVREPIR3.o
 .debug_loc     0x00000000000ef7af    0x33733 /tmp/tmp.jif7ZMerv3.o
 .debug_loc     0x0000000000122ee2      0x28d /tmp/tmp.wEo1ns4GKV.o
 .debug_loc     0x000000000012316f    0x93fff /tmp/tmp.yY4AXHMtRa.o
 .debug_loc     0x00000000001b716e      0xcde /tmp/tmp.l76HFRc2z8.o
 .debug_loc     0x00000000001b7e4c    0x18ec9 /tmp/tmp.368W3XSNDN.o
 .debug_loc     0x00000000001d0d15    0x1ced6 /tmp/tmp.7cB97wCUxJ.o
 .debug_loc     0x00000000001edbeb   0x132e8b /tmp/tmp.fly7mVkzgC.o
 .debug_loc     0x0000000000320a76     0x3c8a /tmp/tmp.8JBNuUmbgF.o
 .debug_loc     0x0000000000324700    0x2abe1 /tmp/tmp.DWP6luA7mj.o
 .debug_loc     0x000000000034f2e1    0xb9397 /tmp/tmp.kEP4qVmKgW.o
 .debug_loc     0x0000000000408678    0x6a067 /tmp/tmp.3xIdfUSbiF.o
 .debug_loc     0x00000000004726df    0x1150f /tmp/tmp.ydWpPdcAJ4.o
 .debug_loc     0x0000000000483bee    0x8f2e5 /tmp/tmp.hE4DplIHT5.o
 .debug_loc     0x0000000000512ed3       0xdf /tmp/tmp.bRvc12isai.o
 .debug_loc     0x0000000000512fb2     0x242e /tmp/tmp.pLiPOMntxt.o
 .debug_loc     0x00000000005153e0     0xee03 /tmp/tmp.HDPuaqhhZu.o
 .debug_loc     0x00000000005241e3    0x1f29d /tmp/tmp.jmwwJDUOZj.o
 .debug_loc     0x0000000000543480     0xf48f /tmp/tmp.ORH0yeivYX.o
 .debug_loc     0x000000000055290f     0x1aa5 /tmp/tmp.18nOMT9MRe.o
 .debug_loc     0x00000000005543b4      0x5d7 /tmp/tmp.cDPw3yBmbF.o
 .debug_loc     0x000000000055498b     0x641d /tmp/tmp.ROpYMn2IxR.o
 .debug_loc     0x000000000055ada8    0x2915b /tmp/tmp.mK74ILubrR.o
 .debug_loc     0x0000000000583f03      0x232 /tmp/tmp.YRYzENnSY1.o
 .debug_loc     0x0000000000584135     0x1361 /tmp/tmp.11GKO8fURX.o
 .debug_loc     0x0000000000585496     0x361f /tmp/tmp.S8xLcpI71A.o
 .debug_loc     0x0000000000588ab5    0x1b977 /tmp/tmp.XCromRbr5b.o
 .debug_loc     0x00000000005a442c    0x2bd71 /tmp/tmp.xPd6T95Idf.o

.debug_macinfo
 *(.debug_macinfo)

.debug_weaknames
 *(.debug_weaknames)

.debug_funcnames
 *(.debug_funcnames)

.debug_typenames
 *(.debug_typenames)

.debug_varnames
 *(.debug_varnames)

.debug_pubtypes
 *(.debug_pubtypes)

.debug_ranges   0x0000000000000000   0x34c130
 *(.debug_ranges)
 .debug_ranges  0x0000000000000000    0x28950 /tmp/tmp.ZRiHNRtepR.o
 .debug_ranges  0x0000000000028950    0x28b90 /tmp/tmp.j1zMqkiwIM.o
 .debug_ranges  0x00000000000514e0     0x5610 /tmp/tmp.1AvJ5bNGPW.o
 .debug_ranges  0x0000000000056af0      0x940 /tmp/tmp.T4JcO1buAE.o
 .debug_ranges  0x0000000000057430     0x6170 /tmp/tmp.tnd3D19n8w.o
 .debug_ranges  0x000000000005d5a0    0x40880 /tmp/tmp.qgbdJ0RIaK.o
 .debug_ranges  0x000000000009de20      0xce0 /tmp/tmp.02UVREPIR3.o
 .debug_ranges  0x000000000009eb00    0x1daf0 /tmp/tmp.jif7ZMerv3.o
 .debug_ranges  0x00000000000bc5f0      0x120 /tmp/tmp.wEo1ns4GKV.o
 .debug_ranges  0x00000000000bc710    0x696d0 /tmp/tmp.yY4AXHMtRa.o
 .debug_ranges  0x0000000000125de0      0x740 /tmp/tmp.l76HFRc2z8.o
 .debug_ranges  0x0000000000126520    0x10e80 /tmp/tmp.368W3XSNDN.o
 .debug_ranges  0x00000000001373a0    0x12500 /tmp/tmp.7cB97wCUxJ.o
 .debug_ranges  0x00000000001498a0    0xa3290 /tmp/tmp.fly7mVkzgC.o
 .debug_ranges  0x00000000001ecb30     0x1d90 /tmp/tmp.8JBNuUmbgF.o
 .debug_ranges  0x00000000001ee8c0     0xfe20 /tmp/tmp.DWP6luA7mj.o
 .debug_ranges  0x00000000001fe6e0    0x6e100 /tmp/tmp.kEP4qVmKgW.o
 .debug_ranges  0x000000000026c7e0    0x2a7a0 /tmp/tmp.3xIdfUSbiF.o
 .debug_ranges  0x0000000000296f80     0x7520 /tmp/tmp.ydWpPdcAJ4.o
 .debug_ranges  0x000000000029e4a0    0x49950 /tmp/tmp.hE4DplIHT5.o
 .debug_ranges  0x00000000002e7df0      0x170 /tmp/tmp.bRvc12isai.o
 .debug_ranges  0x00000000002e7f60     0x1010 /tmp/tmp.pLiPOMntxt.o
 .debug_ranges  0x00000000002e8f70     0xa9d0 /tmp/tmp.HDPuaqhhZu.o
 .debug_ranges  0x00000000002f3940    0x15d90 /tmp/tmp.jmwwJDUOZj.o
 .debug_ranges  0x00000000003096d0     0x5810 /tmp/tmp.ORH0yeivYX.o
 .debug_ranges  0x000000000030eee0      0x940 /tmp/tmp.18nOMT9MRe.o
 .debug_ranges  0x000000000030f820      0x430 /tmp/tmp.cDPw3yBmbF.o
 .debug_ranges  0x000000000030fc50     0x36b0 /tmp/tmp.ROpYMn2IxR.o
 .debug_ranges  0x0000000000313300     0xf7b0 /tmp/tmp.mK74ILubrR.o
 .debug_ranges  0x0000000000322ab0      0xdf0 /tmp/tmp.11GKO8fURX.o
 .debug_ranges  0x00000000003238a0     0x33b0 /tmp/tmp.S8xLcpI71A.o
 .debug_ranges  0x0000000000326c50     0xe7c0 /tmp/tmp.XCromRbr5b.o
 .debug_ranges  0x0000000000335410    0x16d20 /tmp/tmp.xPd6T95Idf.o

.debug_addr
 *(.debug_addr)

.debug_line_str
                0x0000000000000000     0x658d
 *(.debug_line_str)
 .debug_line_str
                0x0000000000000000     0x658d /tmp/tmp.ZRiHNRtepR.o
                                       0x1378 (size before relaxing)
 .debug_line_str
                0x000000000000658d     0x1506 /tmp/tmp.j1zMqkiwIM.o
 .debug_line_str
                0x000000000000658d      0x9ae /tmp/tmp.1AvJ5bNGPW.o
 .debug_line_str
                0x000000000000658d      0x727 /tmp/tmp.T4JcO1buAE.o
 .debug_line_str
                0x000000000000658d      0x692 /tmp/tmp.tnd3D19n8w.o
 .debug_line_str
                0x000000000000658d      0x3a7 /tmp/tmp.qgbdJ0RIaK.o
 .debug_line_str
                0x000000000000658d      0x795 /tmp/tmp.02UVREPIR3.o
 .debug_line_str
                0x000000000000658d      0x660 /tmp/tmp.jif7ZMerv3.o
 .debug_line_str
                0x000000000000658d       0xe7 /tmp/tmp.wEo1ns4GKV.o
 .debug_line_str
                0x000000000000658d     0x15ac /tmp/tmp.yY4AXHMtRa.o
 .debug_line_str
                0x000000000000658d      0x280 /tmp/tmp.l76HFRc2z8.o
 .debug_line_str
                0x000000000000658d      0x97a /tmp/tmp.368W3XSNDN.o
 .debug_line_str
                0x000000000000658d      0xc08 /tmp/tmp.7cB97wCUxJ.o
 .debug_line_str
                0x000000000000658d     0x1f90 /tmp/tmp.fly7mVkzgC.o
 .debug_line_str
                0x000000000000658d      0x5b5 /tmp/tmp.8JBNuUmbgF.o
 .debug_line_str
                0x000000000000658d      0xa23 /tmp/tmp.DWP6luA7mj.o
 .debug_line_str
                0x000000000000658d     0x1d7a /tmp/tmp.kEP4qVmKgW.o
 .debug_line_str
                0x000000000000658d      0x5a4 /tmp/tmp.3xIdfUSbiF.o
 .debug_line_str
                0x000000000000658d      0xcd5 /tmp/tmp.ydWpPdcAJ4.o
 .debug_line_str
                0x000000000000658d      0xa9f /tmp/tmp.hE4DplIHT5.o
 .debug_line_str
                0x000000000000658d      0x12c /tmp/tmp.bRvc12isai.o
 .debug_line_str
                0x000000000000658d      0x720 /tmp/tmp.pLiPOMntxt.o
 .debug_line_str
                0x000000000000658d      0x4ed /tmp/tmp.HDPuaqhhZu.o
 .debug_line_str
                0x000000000000658d      0x9c4 /tmp/tmp.jmwwJDUOZj.o
 .debug_line_str
                0x000000000000658d      0x918 /tmp/tmp.ORH0yeivYX.o
 .debug_line_str
                0x000000000000658d      0x3dd /tmp/tmp.18nOMT9MRe.o
 .debug_line_str
                0x000000000000658d      0x476 /tmp/tmp.cDPw3yBmbF.o
 .debug_line_str
                0x000000000000658d      0x397 /tmp/tmp.ROpYMn2IxR.o
 .debug_line_str
                0x000000000000658d      0xe5a /tmp/tmp.mK74ILubrR.o
 .debug_line_str
                0x000000000000658d       0xf4 /tmp/tmp.YRYzENnSY1.o
 .debug_line_str
                0x000000000000658d      0x44f /tmp/tmp.11GKO8fURX.o
 .debug_line_str
                0x000000000000658d      0x405 /tmp/tmp.S8xLcpI71A.o
 .debug_line_str
                0x000000000000658d      0x447 /tmp/tmp.XCromRbr5b.o
 .debug_line_str
                0x000000000000658d      0xb6c /tmp/tmp.xPd6T95Idf.o

.debug_loclists
 *(.debug_loclists)

.debug_macro
 *(.debug_macro)

.debug_names
 *(.debug_names)

.debug_rnglists
 *(.debug_rnglists)

.debug_str_offsets
 *(.debug_str_offsets)

.debug_sup
 *(.debug_sup)

.ARM.attributes
 *(.ARM.attributes)
 *(.gnu.attributes)

.note.gnu.arm.ident
 *(.note.gnu.arm.ident)

/DISCARD/
 *(.note.GNU-stack)
 *(.gnu_debuglink)
 *(.gnu.lto_*)
OUTPUT(tig-algorithms/aarch64/satisfiability/schnoing.so elf64-littleaarch64)
LOAD linker stubs
